
Led_Sequance_V2.0.elf:     file format elf32-avr

Sections:
Idx Name          Size      VMA       LMA       File off  Algn
  0 .text         000011be  00000000  00000000  00000094  2**1
                  CONTENTS, ALLOC, LOAD, READONLY, CODE
  1 .data         00000024  00800060  000011be  00001252  2**0
                  CONTENTS, ALLOC, LOAD, DATA
  2 .bss          00000007  00800084  00800084  00001276  2**0
                  ALLOC
  3 .stab         00002b98  00000000  00000000  00001278  2**2
                  CONTENTS, READONLY, DEBUGGING
  4 .stabstr      0000288e  00000000  00000000  00003e10  2**0
                  CONTENTS, READONLY, DEBUGGING

Disassembly of section .text:

00000000 <__vectors>:
       0:	0c 94 2a 00 	jmp	0x54	; 0x54 <__ctors_end>
       4:	0c 94 9f 02 	jmp	0x53e	; 0x53e <__vector_1>
       8:	0c 94 cc 02 	jmp	0x598	; 0x598 <__vector_2>
       c:	0c 94 f9 02 	jmp	0x5f2	; 0x5f2 <__vector_3>
      10:	0c 94 47 00 	jmp	0x8e	; 0x8e <__bad_interrupt>
      14:	0c 94 47 00 	jmp	0x8e	; 0x8e <__bad_interrupt>
      18:	0c 94 47 00 	jmp	0x8e	; 0x8e <__bad_interrupt>
      1c:	0c 94 47 00 	jmp	0x8e	; 0x8e <__bad_interrupt>
      20:	0c 94 47 00 	jmp	0x8e	; 0x8e <__bad_interrupt>
      24:	0c 94 47 00 	jmp	0x8e	; 0x8e <__bad_interrupt>
      28:	0c 94 47 00 	jmp	0x8e	; 0x8e <__bad_interrupt>
      2c:	0c 94 47 00 	jmp	0x8e	; 0x8e <__bad_interrupt>
      30:	0c 94 47 00 	jmp	0x8e	; 0x8e <__bad_interrupt>
      34:	0c 94 47 00 	jmp	0x8e	; 0x8e <__bad_interrupt>
      38:	0c 94 47 00 	jmp	0x8e	; 0x8e <__bad_interrupt>
      3c:	0c 94 47 00 	jmp	0x8e	; 0x8e <__bad_interrupt>
      40:	0c 94 47 00 	jmp	0x8e	; 0x8e <__bad_interrupt>
      44:	0c 94 47 00 	jmp	0x8e	; 0x8e <__bad_interrupt>
      48:	0c 94 47 00 	jmp	0x8e	; 0x8e <__bad_interrupt>
      4c:	0c 94 47 00 	jmp	0x8e	; 0x8e <__bad_interrupt>
      50:	0c 94 47 00 	jmp	0x8e	; 0x8e <__bad_interrupt>

00000054 <__ctors_end>:
      54:	11 24       	eor	r1, r1
      56:	1f be       	out	0x3f, r1	; 63
      58:	cf e5       	ldi	r28, 0x5F	; 95
      5a:	d8 e0       	ldi	r29, 0x08	; 8
      5c:	de bf       	out	0x3e, r29	; 62
      5e:	cd bf       	out	0x3d, r28	; 61

00000060 <__do_copy_data>:
      60:	10 e0       	ldi	r17, 0x00	; 0
      62:	a0 e6       	ldi	r26, 0x60	; 96
      64:	b0 e0       	ldi	r27, 0x00	; 0
      66:	ee eb       	ldi	r30, 0xBE	; 190
      68:	f1 e1       	ldi	r31, 0x11	; 17
      6a:	02 c0       	rjmp	.+4      	; 0x70 <.do_copy_data_start>

0000006c <.do_copy_data_loop>:
      6c:	05 90       	lpm	r0, Z+
      6e:	0d 92       	st	X+, r0

00000070 <.do_copy_data_start>:
      70:	a4 38       	cpi	r26, 0x84	; 132
      72:	b1 07       	cpc	r27, r17
      74:	d9 f7       	brne	.-10     	; 0x6c <.do_copy_data_loop>

00000076 <__do_clear_bss>:
      76:	10 e0       	ldi	r17, 0x00	; 0
      78:	a4 e8       	ldi	r26, 0x84	; 132
      7a:	b0 e0       	ldi	r27, 0x00	; 0
      7c:	01 c0       	rjmp	.+2      	; 0x80 <.do_clear_bss_start>

0000007e <.do_clear_bss_loop>:
      7e:	1d 92       	st	X+, r1

00000080 <.do_clear_bss_start>:
      80:	ab 38       	cpi	r26, 0x8B	; 139
      82:	b1 07       	cpc	r27, r17
      84:	e1 f7       	brne	.-8      	; 0x7e <.do_clear_bss_loop>
      86:	0e 94 d4 08 	call	0x11a8	; 0x11a8 <main>
      8a:	0c 94 dd 08 	jmp	0x11ba	; 0x11ba <_exit>

0000008e <__bad_interrupt>:
      8e:	0c 94 00 00 	jmp	0	; 0x0 <__vectors>

00000092 <MCU_vEnableInterrupt>:
*//*************************************************************************/

#include"MCU_Interface.h"

void MCU_vEnableInterrupt(void)
{
      92:	df 93       	push	r29
      94:	cf 93       	push	r28
      96:	cd b7       	in	r28, 0x3d	; 61
      98:	de b7       	in	r29, 0x3e	; 62
	SET_BIT(SREG_REG,7);
      9a:	af e5       	ldi	r26, 0x5F	; 95
      9c:	b0 e0       	ldi	r27, 0x00	; 0
      9e:	ef e5       	ldi	r30, 0x5F	; 95
      a0:	f0 e0       	ldi	r31, 0x00	; 0
      a2:	80 81       	ld	r24, Z
      a4:	80 68       	ori	r24, 0x80	; 128
      a6:	8c 93       	st	X, r24

}
      a8:	cf 91       	pop	r28
      aa:	df 91       	pop	r29
      ac:	08 95       	ret

000000ae <EXT_vINTERRUPT_Init>:
static void(*INT1_InterruptHandler)(void) = NULL;
static void(*INT2_InterruptHandler)(void) = NULL;


Std_ReturnType EXT_vINTERRUPT_Init(const  ST_EXT_INTERRUPTS_CFG *EXT_INTx)
{
      ae:	df 93       	push	r29
      b0:	cf 93       	push	r28
      b2:	00 d0       	rcall	.+0      	; 0xb4 <EXT_vINTERRUPT_Init+0x6>
      b4:	00 d0       	rcall	.+0      	; 0xb6 <EXT_vINTERRUPT_Init+0x8>
      b6:	0f 92       	push	r0
      b8:	cd b7       	in	r28, 0x3d	; 61
      ba:	de b7       	in	r29, 0x3e	; 62
      bc:	9b 83       	std	Y+3, r25	; 0x03
      be:	8a 83       	std	Y+2, r24	; 0x02
	Std_ReturnType ret = E_NOT_OK;
      c0:	19 82       	std	Y+1, r1	; 0x01

	if(NULL == EXT_INTx)
      c2:	8a 81       	ldd	r24, Y+2	; 0x02
      c4:	9b 81       	ldd	r25, Y+3	; 0x03
      c6:	00 97       	sbiw	r24, 0x00	; 0
      c8:	11 f4       	brne	.+4      	; 0xce <EXT_vINTERRUPT_Init+0x20>
	{
		ret = E_NOT_OK;
      ca:	19 82       	std	Y+1, r1	; 0x01
      cc:	45 c1       	rjmp	.+650    	; 0x358 <EXT_vINTERRUPT_Init+0x2aa>
	}
	else
	{
		switch(EXT_INTx->EXTERNAL_INTERRUPRT_Number)
      ce:	ea 81       	ldd	r30, Y+2	; 0x02
      d0:	fb 81       	ldd	r31, Y+3	; 0x03
      d2:	82 81       	ldd	r24, Z+2	; 0x02
      d4:	28 2f       	mov	r18, r24
      d6:	30 e0       	ldi	r19, 0x00	; 0
      d8:	3d 83       	std	Y+5, r19	; 0x05
      da:	2c 83       	std	Y+4, r18	; 0x04
      dc:	8c 81       	ldd	r24, Y+4	; 0x04
      de:	9d 81       	ldd	r25, Y+5	; 0x05
      e0:	81 30       	cpi	r24, 0x01	; 1
      e2:	91 05       	cpc	r25, r1
      e4:	09 f4       	brne	.+2      	; 0xe8 <EXT_vINTERRUPT_Init+0x3a>
      e6:	89 c0       	rjmp	.+274    	; 0x1fa <EXT_vINTERRUPT_Init+0x14c>
      e8:	2c 81       	ldd	r18, Y+4	; 0x04
      ea:	3d 81       	ldd	r19, Y+5	; 0x05
      ec:	22 30       	cpi	r18, 0x02	; 2
      ee:	31 05       	cpc	r19, r1
      f0:	09 f4       	brne	.+2      	; 0xf4 <EXT_vINTERRUPT_Init+0x46>
      f2:	01 c1       	rjmp	.+514    	; 0x2f6 <EXT_vINTERRUPT_Init+0x248>
      f4:	8c 81       	ldd	r24, Y+4	; 0x04
      f6:	9d 81       	ldd	r25, Y+5	; 0x05
      f8:	00 97       	sbiw	r24, 0x00	; 0
      fa:	09 f0       	breq	.+2      	; 0xfe <EXT_vINTERRUPT_Init+0x50>
      fc:	2d c1       	rjmp	.+602    	; 0x358 <EXT_vINTERRUPT_Init+0x2aa>
		{
		case EXT0_INTERRUPTS:
		{

			if(EXT_INTx->EXTERNAL_INTERRUPRT_Sense_Control == LOW_LEVEL_SENSE_CONTROL)
      fe:	ea 81       	ldd	r30, Y+2	; 0x02
     100:	fb 81       	ldd	r31, Y+3	; 0x03
     102:	83 81       	ldd	r24, Z+3	; 0x03
     104:	88 23       	and	r24, r24
     106:	d1 f4       	brne	.+52     	; 0x13c <EXT_vINTERRUPT_Init+0x8e>
			{
				MCU_vEnableInterrupt();
     108:	0e 94 49 00 	call	0x92	; 0x92 <MCU_vEnableInterrupt>
				SET_BIT(GICR_REG,GICR_REG_INT0_BITS);
     10c:	ab e5       	ldi	r26, 0x5B	; 91
     10e:	b0 e0       	ldi	r27, 0x00	; 0
     110:	eb e5       	ldi	r30, 0x5B	; 91
     112:	f0 e0       	ldi	r31, 0x00	; 0
     114:	80 81       	ld	r24, Z
     116:	80 64       	ori	r24, 0x40	; 64
     118:	8c 93       	st	X, r24
				CLEAR_BIT(MCUCR_REG,MCUCR_REG_ISC01_BITS);
     11a:	a5 e5       	ldi	r26, 0x55	; 85
     11c:	b0 e0       	ldi	r27, 0x00	; 0
     11e:	e5 e5       	ldi	r30, 0x55	; 85
     120:	f0 e0       	ldi	r31, 0x00	; 0
     122:	80 81       	ld	r24, Z
     124:	8d 7f       	andi	r24, 0xFD	; 253
     126:	8c 93       	st	X, r24
				CLEAR_BIT(MCUCR_REG,MCUCR_REG_ISC00_BITS);
     128:	a5 e5       	ldi	r26, 0x55	; 85
     12a:	b0 e0       	ldi	r27, 0x00	; 0
     12c:	e5 e5       	ldi	r30, 0x55	; 85
     12e:	f0 e0       	ldi	r31, 0x00	; 0
     130:	80 81       	ld	r24, Z
     132:	8e 7f       	andi	r24, 0xFE	; 254
     134:	8c 93       	st	X, r24
				ret = E_OK;
     136:	81 e0       	ldi	r24, 0x01	; 1
     138:	89 83       	std	Y+1, r24	; 0x01
     13a:	0e c1       	rjmp	.+540    	; 0x358 <EXT_vINTERRUPT_Init+0x2aa>
			}
			else if(EXT_INTx->EXTERNAL_INTERRUPRT_Sense_Control == ANY_LOGICAL_SENSE_CONTROL)
     13c:	ea 81       	ldd	r30, Y+2	; 0x02
     13e:	fb 81       	ldd	r31, Y+3	; 0x03
     140:	83 81       	ldd	r24, Z+3	; 0x03
     142:	81 30       	cpi	r24, 0x01	; 1
     144:	d1 f4       	brne	.+52     	; 0x17a <EXT_vINTERRUPT_Init+0xcc>
			{
				MCU_vEnableInterrupt();
     146:	0e 94 49 00 	call	0x92	; 0x92 <MCU_vEnableInterrupt>
				SET_BIT(GICR_REG,GICR_REG_INT0_BITS);
     14a:	ab e5       	ldi	r26, 0x5B	; 91
     14c:	b0 e0       	ldi	r27, 0x00	; 0
     14e:	eb e5       	ldi	r30, 0x5B	; 91
     150:	f0 e0       	ldi	r31, 0x00	; 0
     152:	80 81       	ld	r24, Z
     154:	80 64       	ori	r24, 0x40	; 64
     156:	8c 93       	st	X, r24
				CLEAR_BIT(MCUCR_REG,MCUCR_REG_ISC01_BITS);
     158:	a5 e5       	ldi	r26, 0x55	; 85
     15a:	b0 e0       	ldi	r27, 0x00	; 0
     15c:	e5 e5       	ldi	r30, 0x55	; 85
     15e:	f0 e0       	ldi	r31, 0x00	; 0
     160:	80 81       	ld	r24, Z
     162:	8d 7f       	andi	r24, 0xFD	; 253
     164:	8c 93       	st	X, r24
				SET_BIT(MCUCR_REG,MCUCR_REG_ISC00_BITS);
     166:	a5 e5       	ldi	r26, 0x55	; 85
     168:	b0 e0       	ldi	r27, 0x00	; 0
     16a:	e5 e5       	ldi	r30, 0x55	; 85
     16c:	f0 e0       	ldi	r31, 0x00	; 0
     16e:	80 81       	ld	r24, Z
     170:	81 60       	ori	r24, 0x01	; 1
     172:	8c 93       	st	X, r24
				ret = E_OK;
     174:	81 e0       	ldi	r24, 0x01	; 1
     176:	89 83       	std	Y+1, r24	; 0x01
     178:	ef c0       	rjmp	.+478    	; 0x358 <EXT_vINTERRUPT_Init+0x2aa>
			}
			else if(EXT_INTx->EXTERNAL_INTERRUPRT_Sense_Control == FALLING_EDGE_SENSE_CONTROL)
     17a:	ea 81       	ldd	r30, Y+2	; 0x02
     17c:	fb 81       	ldd	r31, Y+3	; 0x03
     17e:	83 81       	ldd	r24, Z+3	; 0x03
     180:	82 30       	cpi	r24, 0x02	; 2
     182:	d1 f4       	brne	.+52     	; 0x1b8 <EXT_vINTERRUPT_Init+0x10a>
			{
				MCU_vEnableInterrupt();
     184:	0e 94 49 00 	call	0x92	; 0x92 <MCU_vEnableInterrupt>
				SET_BIT(GICR_REG,GICR_REG_INT0_BITS);
     188:	ab e5       	ldi	r26, 0x5B	; 91
     18a:	b0 e0       	ldi	r27, 0x00	; 0
     18c:	eb e5       	ldi	r30, 0x5B	; 91
     18e:	f0 e0       	ldi	r31, 0x00	; 0
     190:	80 81       	ld	r24, Z
     192:	80 64       	ori	r24, 0x40	; 64
     194:	8c 93       	st	X, r24
				SET_BIT(MCUCR_REG,MCUCR_REG_ISC01_BITS);
     196:	a5 e5       	ldi	r26, 0x55	; 85
     198:	b0 e0       	ldi	r27, 0x00	; 0
     19a:	e5 e5       	ldi	r30, 0x55	; 85
     19c:	f0 e0       	ldi	r31, 0x00	; 0
     19e:	80 81       	ld	r24, Z
     1a0:	82 60       	ori	r24, 0x02	; 2
     1a2:	8c 93       	st	X, r24
				CLEAR_BIT(MCUCR_REG,MCUCR_REG_ISC00_BITS);
     1a4:	a5 e5       	ldi	r26, 0x55	; 85
     1a6:	b0 e0       	ldi	r27, 0x00	; 0
     1a8:	e5 e5       	ldi	r30, 0x55	; 85
     1aa:	f0 e0       	ldi	r31, 0x00	; 0
     1ac:	80 81       	ld	r24, Z
     1ae:	8e 7f       	andi	r24, 0xFE	; 254
     1b0:	8c 93       	st	X, r24
				ret = E_OK;
     1b2:	81 e0       	ldi	r24, 0x01	; 1
     1b4:	89 83       	std	Y+1, r24	; 0x01
     1b6:	d0 c0       	rjmp	.+416    	; 0x358 <EXT_vINTERRUPT_Init+0x2aa>
			}
			else if(EXT_INTx->EXTERNAL_INTERRUPRT_Sense_Control == RISING_EDGE_SENSE_CONTROL)
     1b8:	ea 81       	ldd	r30, Y+2	; 0x02
     1ba:	fb 81       	ldd	r31, Y+3	; 0x03
     1bc:	83 81       	ldd	r24, Z+3	; 0x03
     1be:	83 30       	cpi	r24, 0x03	; 3
     1c0:	d1 f4       	brne	.+52     	; 0x1f6 <EXT_vINTERRUPT_Init+0x148>
			{
				MCU_vEnableInterrupt();
     1c2:	0e 94 49 00 	call	0x92	; 0x92 <MCU_vEnableInterrupt>
				SET_BIT(GICR_REG,GICR_REG_INT0_BITS);
     1c6:	ab e5       	ldi	r26, 0x5B	; 91
     1c8:	b0 e0       	ldi	r27, 0x00	; 0
     1ca:	eb e5       	ldi	r30, 0x5B	; 91
     1cc:	f0 e0       	ldi	r31, 0x00	; 0
     1ce:	80 81       	ld	r24, Z
     1d0:	80 64       	ori	r24, 0x40	; 64
     1d2:	8c 93       	st	X, r24
				SET_BIT(MCUCR_REG,MCUCR_REG_ISC01_BITS);
     1d4:	a5 e5       	ldi	r26, 0x55	; 85
     1d6:	b0 e0       	ldi	r27, 0x00	; 0
     1d8:	e5 e5       	ldi	r30, 0x55	; 85
     1da:	f0 e0       	ldi	r31, 0x00	; 0
     1dc:	80 81       	ld	r24, Z
     1de:	82 60       	ori	r24, 0x02	; 2
     1e0:	8c 93       	st	X, r24
				SET_BIT(MCUCR_REG,MCUCR_REG_ISC00_BITS);
     1e2:	a5 e5       	ldi	r26, 0x55	; 85
     1e4:	b0 e0       	ldi	r27, 0x00	; 0
     1e6:	e5 e5       	ldi	r30, 0x55	; 85
     1e8:	f0 e0       	ldi	r31, 0x00	; 0
     1ea:	80 81       	ld	r24, Z
     1ec:	81 60       	ori	r24, 0x01	; 1
     1ee:	8c 93       	st	X, r24
				ret = E_OK;
     1f0:	81 e0       	ldi	r24, 0x01	; 1
     1f2:	89 83       	std	Y+1, r24	; 0x01
     1f4:	b1 c0       	rjmp	.+354    	; 0x358 <EXT_vINTERRUPT_Init+0x2aa>
			}
			else
			{
				ret = E_NOT_OK;
     1f6:	19 82       	std	Y+1, r1	; 0x01
     1f8:	af c0       	rjmp	.+350    	; 0x358 <EXT_vINTERRUPT_Init+0x2aa>
			break;
		}
		case EXT1_INTERRUPTS:
		{

			if(EXT_INTx->EXTERNAL_INTERRUPRT_Sense_Control == LOW_LEVEL_SENSE_CONTROL)
     1fa:	ea 81       	ldd	r30, Y+2	; 0x02
     1fc:	fb 81       	ldd	r31, Y+3	; 0x03
     1fe:	83 81       	ldd	r24, Z+3	; 0x03
     200:	88 23       	and	r24, r24
     202:	d1 f4       	brne	.+52     	; 0x238 <EXT_vINTERRUPT_Init+0x18a>
			{
				MCU_vEnableInterrupt();
     204:	0e 94 49 00 	call	0x92	; 0x92 <MCU_vEnableInterrupt>
				SET_BIT(GICR_REG,GICR_REG_INT1_BITS);
     208:	ab e5       	ldi	r26, 0x5B	; 91
     20a:	b0 e0       	ldi	r27, 0x00	; 0
     20c:	eb e5       	ldi	r30, 0x5B	; 91
     20e:	f0 e0       	ldi	r31, 0x00	; 0
     210:	80 81       	ld	r24, Z
     212:	80 68       	ori	r24, 0x80	; 128
     214:	8c 93       	st	X, r24
				CLEAR_BIT(MCUCR_REG,MCUCR_REG_ISC11_BITS);
     216:	a5 e5       	ldi	r26, 0x55	; 85
     218:	b0 e0       	ldi	r27, 0x00	; 0
     21a:	e5 e5       	ldi	r30, 0x55	; 85
     21c:	f0 e0       	ldi	r31, 0x00	; 0
     21e:	80 81       	ld	r24, Z
     220:	87 7f       	andi	r24, 0xF7	; 247
     222:	8c 93       	st	X, r24
				CLEAR_BIT(MCUCR_REG,MCUCR_REG_ISC10_BITS);
     224:	a5 e5       	ldi	r26, 0x55	; 85
     226:	b0 e0       	ldi	r27, 0x00	; 0
     228:	e5 e5       	ldi	r30, 0x55	; 85
     22a:	f0 e0       	ldi	r31, 0x00	; 0
     22c:	80 81       	ld	r24, Z
     22e:	8b 7f       	andi	r24, 0xFB	; 251
     230:	8c 93       	st	X, r24
				ret = E_OK;
     232:	81 e0       	ldi	r24, 0x01	; 1
     234:	89 83       	std	Y+1, r24	; 0x01
     236:	90 c0       	rjmp	.+288    	; 0x358 <EXT_vINTERRUPT_Init+0x2aa>
			}
			else if(EXT_INTx->EXTERNAL_INTERRUPRT_Sense_Control == ANY_LOGICAL_SENSE_CONTROL)
     238:	ea 81       	ldd	r30, Y+2	; 0x02
     23a:	fb 81       	ldd	r31, Y+3	; 0x03
     23c:	83 81       	ldd	r24, Z+3	; 0x03
     23e:	81 30       	cpi	r24, 0x01	; 1
     240:	d1 f4       	brne	.+52     	; 0x276 <EXT_vINTERRUPT_Init+0x1c8>
			{
				MCU_vEnableInterrupt();
     242:	0e 94 49 00 	call	0x92	; 0x92 <MCU_vEnableInterrupt>
				SET_BIT(GICR_REG,GICR_REG_INT1_BITS);
     246:	ab e5       	ldi	r26, 0x5B	; 91
     248:	b0 e0       	ldi	r27, 0x00	; 0
     24a:	eb e5       	ldi	r30, 0x5B	; 91
     24c:	f0 e0       	ldi	r31, 0x00	; 0
     24e:	80 81       	ld	r24, Z
     250:	80 68       	ori	r24, 0x80	; 128
     252:	8c 93       	st	X, r24
				CLEAR_BIT(MCUCR_REG,MCUCR_REG_ISC11_BITS);
     254:	a5 e5       	ldi	r26, 0x55	; 85
     256:	b0 e0       	ldi	r27, 0x00	; 0
     258:	e5 e5       	ldi	r30, 0x55	; 85
     25a:	f0 e0       	ldi	r31, 0x00	; 0
     25c:	80 81       	ld	r24, Z
     25e:	87 7f       	andi	r24, 0xF7	; 247
     260:	8c 93       	st	X, r24
				SET_BIT(MCUCR_REG,MCUCR_REG_ISC10_BITS);
     262:	a5 e5       	ldi	r26, 0x55	; 85
     264:	b0 e0       	ldi	r27, 0x00	; 0
     266:	e5 e5       	ldi	r30, 0x55	; 85
     268:	f0 e0       	ldi	r31, 0x00	; 0
     26a:	80 81       	ld	r24, Z
     26c:	84 60       	ori	r24, 0x04	; 4
     26e:	8c 93       	st	X, r24
				ret = E_OK;
     270:	81 e0       	ldi	r24, 0x01	; 1
     272:	89 83       	std	Y+1, r24	; 0x01
     274:	71 c0       	rjmp	.+226    	; 0x358 <EXT_vINTERRUPT_Init+0x2aa>
			}
			else if(EXT_INTx->EXTERNAL_INTERRUPRT_Sense_Control == FALLING_EDGE_SENSE_CONTROL)
     276:	ea 81       	ldd	r30, Y+2	; 0x02
     278:	fb 81       	ldd	r31, Y+3	; 0x03
     27a:	83 81       	ldd	r24, Z+3	; 0x03
     27c:	82 30       	cpi	r24, 0x02	; 2
     27e:	d1 f4       	brne	.+52     	; 0x2b4 <EXT_vINTERRUPT_Init+0x206>
			{
				MCU_vEnableInterrupt();
     280:	0e 94 49 00 	call	0x92	; 0x92 <MCU_vEnableInterrupt>
				SET_BIT(GICR_REG,GICR_REG_INT1_BITS);
     284:	ab e5       	ldi	r26, 0x5B	; 91
     286:	b0 e0       	ldi	r27, 0x00	; 0
     288:	eb e5       	ldi	r30, 0x5B	; 91
     28a:	f0 e0       	ldi	r31, 0x00	; 0
     28c:	80 81       	ld	r24, Z
     28e:	80 68       	ori	r24, 0x80	; 128
     290:	8c 93       	st	X, r24
				SET_BIT(MCUCR_REG,MCUCR_REG_ISC11_BITS);
     292:	a5 e5       	ldi	r26, 0x55	; 85
     294:	b0 e0       	ldi	r27, 0x00	; 0
     296:	e5 e5       	ldi	r30, 0x55	; 85
     298:	f0 e0       	ldi	r31, 0x00	; 0
     29a:	80 81       	ld	r24, Z
     29c:	88 60       	ori	r24, 0x08	; 8
     29e:	8c 93       	st	X, r24
				CLEAR_BIT(MCUCR_REG,MCUCR_REG_ISC10_BITS);
     2a0:	a5 e5       	ldi	r26, 0x55	; 85
     2a2:	b0 e0       	ldi	r27, 0x00	; 0
     2a4:	e5 e5       	ldi	r30, 0x55	; 85
     2a6:	f0 e0       	ldi	r31, 0x00	; 0
     2a8:	80 81       	ld	r24, Z
     2aa:	8b 7f       	andi	r24, 0xFB	; 251
     2ac:	8c 93       	st	X, r24
				ret = E_OK;
     2ae:	81 e0       	ldi	r24, 0x01	; 1
     2b0:	89 83       	std	Y+1, r24	; 0x01
     2b2:	52 c0       	rjmp	.+164    	; 0x358 <EXT_vINTERRUPT_Init+0x2aa>
			}
			else if(EXT_INTx->EXTERNAL_INTERRUPRT_Sense_Control == RISING_EDGE_SENSE_CONTROL)
     2b4:	ea 81       	ldd	r30, Y+2	; 0x02
     2b6:	fb 81       	ldd	r31, Y+3	; 0x03
     2b8:	83 81       	ldd	r24, Z+3	; 0x03
     2ba:	83 30       	cpi	r24, 0x03	; 3
     2bc:	d1 f4       	brne	.+52     	; 0x2f2 <EXT_vINTERRUPT_Init+0x244>
			{
				MCU_vEnableInterrupt();
     2be:	0e 94 49 00 	call	0x92	; 0x92 <MCU_vEnableInterrupt>
				SET_BIT(GICR_REG,GICR_REG_INT1_BITS);
     2c2:	ab e5       	ldi	r26, 0x5B	; 91
     2c4:	b0 e0       	ldi	r27, 0x00	; 0
     2c6:	eb e5       	ldi	r30, 0x5B	; 91
     2c8:	f0 e0       	ldi	r31, 0x00	; 0
     2ca:	80 81       	ld	r24, Z
     2cc:	80 68       	ori	r24, 0x80	; 128
     2ce:	8c 93       	st	X, r24
				SET_BIT(MCUCR_REG,MCUCR_REG_ISC11_BITS);
     2d0:	a5 e5       	ldi	r26, 0x55	; 85
     2d2:	b0 e0       	ldi	r27, 0x00	; 0
     2d4:	e5 e5       	ldi	r30, 0x55	; 85
     2d6:	f0 e0       	ldi	r31, 0x00	; 0
     2d8:	80 81       	ld	r24, Z
     2da:	88 60       	ori	r24, 0x08	; 8
     2dc:	8c 93       	st	X, r24
				SET_BIT(MCUCR_REG,MCUCR_REG_ISC10_BITS);
     2de:	a5 e5       	ldi	r26, 0x55	; 85
     2e0:	b0 e0       	ldi	r27, 0x00	; 0
     2e2:	e5 e5       	ldi	r30, 0x55	; 85
     2e4:	f0 e0       	ldi	r31, 0x00	; 0
     2e6:	80 81       	ld	r24, Z
     2e8:	84 60       	ori	r24, 0x04	; 4
     2ea:	8c 93       	st	X, r24
				ret = E_OK;
     2ec:	81 e0       	ldi	r24, 0x01	; 1
     2ee:	89 83       	std	Y+1, r24	; 0x01
     2f0:	33 c0       	rjmp	.+102    	; 0x358 <EXT_vINTERRUPT_Init+0x2aa>
			}
			else
			{
				ret = E_NOT_OK;
     2f2:	19 82       	std	Y+1, r1	; 0x01
     2f4:	31 c0       	rjmp	.+98     	; 0x358 <EXT_vINTERRUPT_Init+0x2aa>
			break;
		}
		case EXT2_INTERRUPTS:
		{

			if(EXT_INTx->EXTERNAL_INTERRUPRT_Sense_Control == FALLING_EDGE_SENSE_CONTROL)
     2f6:	ea 81       	ldd	r30, Y+2	; 0x02
     2f8:	fb 81       	ldd	r31, Y+3	; 0x03
     2fa:	83 81       	ldd	r24, Z+3	; 0x03
     2fc:	82 30       	cpi	r24, 0x02	; 2
     2fe:	99 f4       	brne	.+38     	; 0x326 <EXT_vINTERRUPT_Init+0x278>
			{
				MCU_vEnableInterrupt();
     300:	0e 94 49 00 	call	0x92	; 0x92 <MCU_vEnableInterrupt>
				SET_BIT(GICR_REG,GICR_REG_INT2_BITS);
     304:	ab e5       	ldi	r26, 0x5B	; 91
     306:	b0 e0       	ldi	r27, 0x00	; 0
     308:	eb e5       	ldi	r30, 0x5B	; 91
     30a:	f0 e0       	ldi	r31, 0x00	; 0
     30c:	80 81       	ld	r24, Z
     30e:	80 62       	ori	r24, 0x20	; 32
     310:	8c 93       	st	X, r24
				CLEAR_BIT(MCUCSR_REG,MCUCSR_REG_ISC2_BITS);
     312:	a4 e5       	ldi	r26, 0x54	; 84
     314:	b0 e0       	ldi	r27, 0x00	; 0
     316:	e4 e5       	ldi	r30, 0x54	; 84
     318:	f0 e0       	ldi	r31, 0x00	; 0
     31a:	80 81       	ld	r24, Z
     31c:	8f 7b       	andi	r24, 0xBF	; 191
     31e:	8c 93       	st	X, r24
				ret = E_OK;
     320:	81 e0       	ldi	r24, 0x01	; 1
     322:	89 83       	std	Y+1, r24	; 0x01
     324:	19 c0       	rjmp	.+50     	; 0x358 <EXT_vINTERRUPT_Init+0x2aa>
			}
			else if(EXT_INTx->EXTERNAL_INTERRUPRT_Sense_Control == RISING_EDGE_SENSE_CONTROL)
     326:	ea 81       	ldd	r30, Y+2	; 0x02
     328:	fb 81       	ldd	r31, Y+3	; 0x03
     32a:	83 81       	ldd	r24, Z+3	; 0x03
     32c:	83 30       	cpi	r24, 0x03	; 3
     32e:	99 f4       	brne	.+38     	; 0x356 <EXT_vINTERRUPT_Init+0x2a8>
			{
				MCU_vEnableInterrupt();
     330:	0e 94 49 00 	call	0x92	; 0x92 <MCU_vEnableInterrupt>
				SET_BIT(GICR_REG,GICR_REG_INT2_BITS);
     334:	ab e5       	ldi	r26, 0x5B	; 91
     336:	b0 e0       	ldi	r27, 0x00	; 0
     338:	eb e5       	ldi	r30, 0x5B	; 91
     33a:	f0 e0       	ldi	r31, 0x00	; 0
     33c:	80 81       	ld	r24, Z
     33e:	80 62       	ori	r24, 0x20	; 32
     340:	8c 93       	st	X, r24
				SET_BIT(MCUCSR_REG,MCUCSR_REG_ISC2_BITS);
     342:	a4 e5       	ldi	r26, 0x54	; 84
     344:	b0 e0       	ldi	r27, 0x00	; 0
     346:	e4 e5       	ldi	r30, 0x54	; 84
     348:	f0 e0       	ldi	r31, 0x00	; 0
     34a:	80 81       	ld	r24, Z
     34c:	80 64       	ori	r24, 0x40	; 64
     34e:	8c 93       	st	X, r24
				ret = E_OK;
     350:	81 e0       	ldi	r24, 0x01	; 1
     352:	89 83       	std	Y+1, r24	; 0x01
     354:	01 c0       	rjmp	.+2      	; 0x358 <EXT_vINTERRUPT_Init+0x2aa>
			}
			else
			{
				ret = E_NOT_OK;
     356:	19 82       	std	Y+1, r1	; 0x01
			}
			break;
		}
		}
	}
	return ret;
     358:	89 81       	ldd	r24, Y+1	; 0x01
}
     35a:	0f 90       	pop	r0
     35c:	0f 90       	pop	r0
     35e:	0f 90       	pop	r0
     360:	0f 90       	pop	r0
     362:	0f 90       	pop	r0
     364:	cf 91       	pop	r28
     366:	df 91       	pop	r29
     368:	08 95       	ret

0000036a <EXT_vINTERRUPT_Denit>:
Std_ReturnType EXT_vINTERRUPT_Denit(const ST_EXT_INTERRUPTS_CFG *EXT_INTx)
{
     36a:	df 93       	push	r29
     36c:	cf 93       	push	r28
     36e:	00 d0       	rcall	.+0      	; 0x370 <EXT_vINTERRUPT_Denit+0x6>
     370:	00 d0       	rcall	.+0      	; 0x372 <EXT_vINTERRUPT_Denit+0x8>
     372:	0f 92       	push	r0
     374:	cd b7       	in	r28, 0x3d	; 61
     376:	de b7       	in	r29, 0x3e	; 62
     378:	9b 83       	std	Y+3, r25	; 0x03
     37a:	8a 83       	std	Y+2, r24	; 0x02
	Std_ReturnType ret = E_NOT_OK;
     37c:	19 82       	std	Y+1, r1	; 0x01

	if(NULL == EXT_INTx)
     37e:	8a 81       	ldd	r24, Y+2	; 0x02
     380:	9b 81       	ldd	r25, Y+3	; 0x03
     382:	00 97       	sbiw	r24, 0x00	; 0
     384:	11 f4       	brne	.+4      	; 0x38a <EXT_vINTERRUPT_Denit+0x20>
	{
		ret = E_NOT_OK;
     386:	19 82       	std	Y+1, r1	; 0x01
     388:	32 c0       	rjmp	.+100    	; 0x3ee <EXT_vINTERRUPT_Denit+0x84>
	}
	else
	{
		switch(EXT_INTx->EXTERNAL_INTERRUPRT_Number)
     38a:	ea 81       	ldd	r30, Y+2	; 0x02
     38c:	fb 81       	ldd	r31, Y+3	; 0x03
     38e:	82 81       	ldd	r24, Z+2	; 0x02
     390:	28 2f       	mov	r18, r24
     392:	30 e0       	ldi	r19, 0x00	; 0
     394:	3d 83       	std	Y+5, r19	; 0x05
     396:	2c 83       	std	Y+4, r18	; 0x04
     398:	8c 81       	ldd	r24, Y+4	; 0x04
     39a:	9d 81       	ldd	r25, Y+5	; 0x05
     39c:	81 30       	cpi	r24, 0x01	; 1
     39e:	91 05       	cpc	r25, r1
     3a0:	99 f0       	breq	.+38     	; 0x3c8 <EXT_vINTERRUPT_Denit+0x5e>
     3a2:	2c 81       	ldd	r18, Y+4	; 0x04
     3a4:	3d 81       	ldd	r19, Y+5	; 0x05
     3a6:	22 30       	cpi	r18, 0x02	; 2
     3a8:	31 05       	cpc	r19, r1
     3aa:	c1 f0       	breq	.+48     	; 0x3dc <EXT_vINTERRUPT_Denit+0x72>
     3ac:	8c 81       	ldd	r24, Y+4	; 0x04
     3ae:	9d 81       	ldd	r25, Y+5	; 0x05
     3b0:	00 97       	sbiw	r24, 0x00	; 0
     3b2:	e9 f4       	brne	.+58     	; 0x3ee <EXT_vINTERRUPT_Denit+0x84>
		{
		case EXT0_INTERRUPTS:
		{
			CLEAR_BIT(GICR_REG,GICR_REG_INT0_BITS);
     3b4:	ab e5       	ldi	r26, 0x5B	; 91
     3b6:	b0 e0       	ldi	r27, 0x00	; 0
     3b8:	eb e5       	ldi	r30, 0x5B	; 91
     3ba:	f0 e0       	ldi	r31, 0x00	; 0
     3bc:	80 81       	ld	r24, Z
     3be:	8f 7b       	andi	r24, 0xBF	; 191
     3c0:	8c 93       	st	X, r24
			ret = E_OK;
     3c2:	81 e0       	ldi	r24, 0x01	; 1
     3c4:	89 83       	std	Y+1, r24	; 0x01
     3c6:	13 c0       	rjmp	.+38     	; 0x3ee <EXT_vINTERRUPT_Denit+0x84>
			break;
		}
		case EXT1_INTERRUPTS:
		{
			CLEAR_BIT(GICR_REG,GICR_REG_INT1_BITS);
     3c8:	ab e5       	ldi	r26, 0x5B	; 91
     3ca:	b0 e0       	ldi	r27, 0x00	; 0
     3cc:	eb e5       	ldi	r30, 0x5B	; 91
     3ce:	f0 e0       	ldi	r31, 0x00	; 0
     3d0:	80 81       	ld	r24, Z
     3d2:	8f 77       	andi	r24, 0x7F	; 127
     3d4:	8c 93       	st	X, r24
			ret = E_OK;
     3d6:	81 e0       	ldi	r24, 0x01	; 1
     3d8:	89 83       	std	Y+1, r24	; 0x01
     3da:	09 c0       	rjmp	.+18     	; 0x3ee <EXT_vINTERRUPT_Denit+0x84>
			break;
		}
		case EXT2_INTERRUPTS:
		{
			CLEAR_BIT(GICR_REG,GICR_REG_INT1_BITS);
     3dc:	ab e5       	ldi	r26, 0x5B	; 91
     3de:	b0 e0       	ldi	r27, 0x00	; 0
     3e0:	eb e5       	ldi	r30, 0x5B	; 91
     3e2:	f0 e0       	ldi	r31, 0x00	; 0
     3e4:	80 81       	ld	r24, Z
     3e6:	8f 77       	andi	r24, 0x7F	; 127
     3e8:	8c 93       	st	X, r24
			ret = E_OK;
     3ea:	81 e0       	ldi	r24, 0x01	; 1
     3ec:	89 83       	std	Y+1, r24	; 0x01
			break;
		}
		}
	}
	return ret;
     3ee:	89 81       	ldd	r24, Y+1	; 0x01
}
     3f0:	0f 90       	pop	r0
     3f2:	0f 90       	pop	r0
     3f4:	0f 90       	pop	r0
     3f6:	0f 90       	pop	r0
     3f8:	0f 90       	pop	r0
     3fa:	cf 91       	pop	r28
     3fc:	df 91       	pop	r29
     3fe:	08 95       	ret

00000400 <EXT0_INTERRUPT_SetInterruptHandler>:

static Std_ReturnType EXT0_INTERRUPT_SetInterruptHandler(void(*InterruptHandler)(void))
{
     400:	df 93       	push	r29
     402:	cf 93       	push	r28
     404:	00 d0       	rcall	.+0      	; 0x406 <EXT0_INTERRUPT_SetInterruptHandler+0x6>
     406:	0f 92       	push	r0
     408:	cd b7       	in	r28, 0x3d	; 61
     40a:	de b7       	in	r29, 0x3e	; 62
     40c:	9b 83       	std	Y+3, r25	; 0x03
     40e:	8a 83       	std	Y+2, r24	; 0x02
	Std_ReturnType ret = E_NOT_OK;
     410:	19 82       	std	Y+1, r1	; 0x01
	if( NULL == InterruptHandler)
     412:	8a 81       	ldd	r24, Y+2	; 0x02
     414:	9b 81       	ldd	r25, Y+3	; 0x03
     416:	00 97       	sbiw	r24, 0x00	; 0
     418:	11 f4       	brne	.+4      	; 0x41e <EXT0_INTERRUPT_SetInterruptHandler+0x1e>
	{
		ret = E_NOT_OK;
     41a:	19 82       	std	Y+1, r1	; 0x01
     41c:	08 c0       	rjmp	.+16     	; 0x42e <EXT0_INTERRUPT_SetInterruptHandler+0x2e>
	}
	else
	{
		INT0_InterruptHandler = InterruptHandler;
     41e:	8a 81       	ldd	r24, Y+2	; 0x02
     420:	9b 81       	ldd	r25, Y+3	; 0x03
     422:	90 93 85 00 	sts	0x0085, r25
     426:	80 93 84 00 	sts	0x0084, r24
		ret = E_OK;
     42a:	81 e0       	ldi	r24, 0x01	; 1
     42c:	89 83       	std	Y+1, r24	; 0x01
	}
	return ret;
     42e:	89 81       	ldd	r24, Y+1	; 0x01
}
     430:	0f 90       	pop	r0
     432:	0f 90       	pop	r0
     434:	0f 90       	pop	r0
     436:	cf 91       	pop	r28
     438:	df 91       	pop	r29
     43a:	08 95       	ret

0000043c <EXT1_INTERRUPT_SetInterruptHandler>:

static Std_ReturnType EXT1_INTERRUPT_SetInterruptHandler(void(*InterruptHandler)(void))
{
     43c:	df 93       	push	r29
     43e:	cf 93       	push	r28
     440:	00 d0       	rcall	.+0      	; 0x442 <EXT1_INTERRUPT_SetInterruptHandler+0x6>
     442:	0f 92       	push	r0
     444:	cd b7       	in	r28, 0x3d	; 61
     446:	de b7       	in	r29, 0x3e	; 62
     448:	9b 83       	std	Y+3, r25	; 0x03
     44a:	8a 83       	std	Y+2, r24	; 0x02
	Std_ReturnType ret = E_NOT_OK;
     44c:	19 82       	std	Y+1, r1	; 0x01
	if( NULL == InterruptHandler)
     44e:	8a 81       	ldd	r24, Y+2	; 0x02
     450:	9b 81       	ldd	r25, Y+3	; 0x03
     452:	00 97       	sbiw	r24, 0x00	; 0
     454:	11 f4       	brne	.+4      	; 0x45a <EXT1_INTERRUPT_SetInterruptHandler+0x1e>
	{
		ret = E_NOT_OK;
     456:	19 82       	std	Y+1, r1	; 0x01
     458:	08 c0       	rjmp	.+16     	; 0x46a <EXT1_INTERRUPT_SetInterruptHandler+0x2e>
	}
	else
	{
		INT1_InterruptHandler = InterruptHandler;
     45a:	8a 81       	ldd	r24, Y+2	; 0x02
     45c:	9b 81       	ldd	r25, Y+3	; 0x03
     45e:	90 93 87 00 	sts	0x0087, r25
     462:	80 93 86 00 	sts	0x0086, r24
		ret = E_OK;
     466:	81 e0       	ldi	r24, 0x01	; 1
     468:	89 83       	std	Y+1, r24	; 0x01
	}
	return ret;
     46a:	89 81       	ldd	r24, Y+1	; 0x01
}
     46c:	0f 90       	pop	r0
     46e:	0f 90       	pop	r0
     470:	0f 90       	pop	r0
     472:	cf 91       	pop	r28
     474:	df 91       	pop	r29
     476:	08 95       	ret

00000478 <EXT2_INTERRUPT_SetInterruptHandler>:

static Std_ReturnType EXT2_INTERRUPT_SetInterruptHandler(void(*InterruptHandler)(void))
{
     478:	df 93       	push	r29
     47a:	cf 93       	push	r28
     47c:	00 d0       	rcall	.+0      	; 0x47e <EXT2_INTERRUPT_SetInterruptHandler+0x6>
     47e:	0f 92       	push	r0
     480:	cd b7       	in	r28, 0x3d	; 61
     482:	de b7       	in	r29, 0x3e	; 62
     484:	9b 83       	std	Y+3, r25	; 0x03
     486:	8a 83       	std	Y+2, r24	; 0x02
	Std_ReturnType ret = E_NOT_OK;
     488:	19 82       	std	Y+1, r1	; 0x01
	if( NULL == InterruptHandler)
     48a:	8a 81       	ldd	r24, Y+2	; 0x02
     48c:	9b 81       	ldd	r25, Y+3	; 0x03
     48e:	00 97       	sbiw	r24, 0x00	; 0
     490:	11 f4       	brne	.+4      	; 0x496 <EXT2_INTERRUPT_SetInterruptHandler+0x1e>
	{
		ret = E_NOT_OK;
     492:	19 82       	std	Y+1, r1	; 0x01
     494:	08 c0       	rjmp	.+16     	; 0x4a6 <EXT2_INTERRUPT_SetInterruptHandler+0x2e>
	}
	else
	{
		INT2_InterruptHandler = InterruptHandler;
     496:	8a 81       	ldd	r24, Y+2	; 0x02
     498:	9b 81       	ldd	r25, Y+3	; 0x03
     49a:	90 93 89 00 	sts	0x0089, r25
     49e:	80 93 88 00 	sts	0x0088, r24
		ret = E_OK;
     4a2:	81 e0       	ldi	r24, 0x01	; 1
     4a4:	89 83       	std	Y+1, r24	; 0x01
	}
	return ret;
     4a6:	89 81       	ldd	r24, Y+1	; 0x01
}
     4a8:	0f 90       	pop	r0
     4aa:	0f 90       	pop	r0
     4ac:	0f 90       	pop	r0
     4ae:	cf 91       	pop	r28
     4b0:	df 91       	pop	r29
     4b2:	08 95       	ret

000004b4 <EXT_INTERRUPT_SetInterruptHandler>:

Std_ReturnType EXT_INTERRUPT_SetInterruptHandler(const ST_EXT_INTERRUPTS_CFG *EXT_INTx)
{
     4b4:	df 93       	push	r29
     4b6:	cf 93       	push	r28
     4b8:	00 d0       	rcall	.+0      	; 0x4ba <EXT_INTERRUPT_SetInterruptHandler+0x6>
     4ba:	00 d0       	rcall	.+0      	; 0x4bc <EXT_INTERRUPT_SetInterruptHandler+0x8>
     4bc:	0f 92       	push	r0
     4be:	cd b7       	in	r28, 0x3d	; 61
     4c0:	de b7       	in	r29, 0x3e	; 62
     4c2:	9b 83       	std	Y+3, r25	; 0x03
     4c4:	8a 83       	std	Y+2, r24	; 0x02

    Std_ReturnType ret = E_NOT_OK;
     4c6:	19 82       	std	Y+1, r1	; 0x01
    if(NULL == EXT_INTx)
     4c8:	8a 81       	ldd	r24, Y+2	; 0x02
     4ca:	9b 81       	ldd	r25, Y+3	; 0x03
     4cc:	00 97       	sbiw	r24, 0x00	; 0
     4ce:	11 f4       	brne	.+4      	; 0x4d4 <EXT_INTERRUPT_SetInterruptHandler+0x20>
    {
        ret = E_NOT_OK;
     4d0:	19 82       	std	Y+1, r1	; 0x01
     4d2:	2c c0       	rjmp	.+88     	; 0x52c <EXT_INTERRUPT_SetInterruptHandler+0x78>
    }
    else
    {
       switch(EXT_INTx->EXTERNAL_INTERRUPRT_Number)
     4d4:	ea 81       	ldd	r30, Y+2	; 0x02
     4d6:	fb 81       	ldd	r31, Y+3	; 0x03
     4d8:	82 81       	ldd	r24, Z+2	; 0x02
     4da:	28 2f       	mov	r18, r24
     4dc:	30 e0       	ldi	r19, 0x00	; 0
     4de:	3d 83       	std	Y+5, r19	; 0x05
     4e0:	2c 83       	std	Y+4, r18	; 0x04
     4e2:	8c 81       	ldd	r24, Y+4	; 0x04
     4e4:	9d 81       	ldd	r25, Y+5	; 0x05
     4e6:	81 30       	cpi	r24, 0x01	; 1
     4e8:	91 05       	cpc	r25, r1
     4ea:	89 f0       	breq	.+34     	; 0x50e <EXT_INTERRUPT_SetInterruptHandler+0x5a>
     4ec:	2c 81       	ldd	r18, Y+4	; 0x04
     4ee:	3d 81       	ldd	r19, Y+5	; 0x05
     4f0:	22 30       	cpi	r18, 0x02	; 2
     4f2:	31 05       	cpc	r19, r1
     4f4:	a1 f0       	breq	.+40     	; 0x51e <EXT_INTERRUPT_SetInterruptHandler+0x6a>
     4f6:	8c 81       	ldd	r24, Y+4	; 0x04
     4f8:	9d 81       	ldd	r25, Y+5	; 0x05
     4fa:	00 97       	sbiw	r24, 0x00	; 0
     4fc:	b9 f4       	brne	.+46     	; 0x52c <EXT_INTERRUPT_SetInterruptHandler+0x78>
        {
           case EXT0_INTERRUPTS:
            {
                ret = EXT0_INTERRUPT_SetInterruptHandler(EXT_INTx->INTERRUPT_EXTERNAL_HANDLER);
     4fe:	ea 81       	ldd	r30, Y+2	; 0x02
     500:	fb 81       	ldd	r31, Y+3	; 0x03
     502:	80 81       	ld	r24, Z
     504:	91 81       	ldd	r25, Z+1	; 0x01
     506:	0e 94 00 02 	call	0x400	; 0x400 <EXT0_INTERRUPT_SetInterruptHandler>
     50a:	89 83       	std	Y+1, r24	; 0x01
     50c:	0f c0       	rjmp	.+30     	; 0x52c <EXT_INTERRUPT_SetInterruptHandler+0x78>
                break;
            }
           case EXT1_INTERRUPTS:
            {
                ret = EXT1_INTERRUPT_SetInterruptHandler(EXT_INTx->INTERRUPT_EXTERNAL_HANDLER);
     50e:	ea 81       	ldd	r30, Y+2	; 0x02
     510:	fb 81       	ldd	r31, Y+3	; 0x03
     512:	80 81       	ld	r24, Z
     514:	91 81       	ldd	r25, Z+1	; 0x01
     516:	0e 94 1e 02 	call	0x43c	; 0x43c <EXT1_INTERRUPT_SetInterruptHandler>
     51a:	89 83       	std	Y+1, r24	; 0x01
     51c:	07 c0       	rjmp	.+14     	; 0x52c <EXT_INTERRUPT_SetInterruptHandler+0x78>
                break;
            }
           case EXT2_INTERRUPTS:
            {
                ret = EXT2_INTERRUPT_SetInterruptHandler(EXT_INTx->INTERRUPT_EXTERNAL_HANDLER);
     51e:	ea 81       	ldd	r30, Y+2	; 0x02
     520:	fb 81       	ldd	r31, Y+3	; 0x03
     522:	80 81       	ld	r24, Z
     524:	91 81       	ldd	r25, Z+1	; 0x01
     526:	0e 94 3c 02 	call	0x478	; 0x478 <EXT2_INTERRUPT_SetInterruptHandler>
     52a:	89 83       	std	Y+1, r24	; 0x01
                break;
            }
        }
    }
    return ret;
     52c:	89 81       	ldd	r24, Y+1	; 0x01
}
     52e:	0f 90       	pop	r0
     530:	0f 90       	pop	r0
     532:	0f 90       	pop	r0
     534:	0f 90       	pop	r0
     536:	0f 90       	pop	r0
     538:	cf 91       	pop	r28
     53a:	df 91       	pop	r29
     53c:	08 95       	ret

0000053e <__vector_1>:



ISR(EXT_INT0)
{
     53e:	1f 92       	push	r1
     540:	0f 92       	push	r0
     542:	0f b6       	in	r0, 0x3f	; 63
     544:	0f 92       	push	r0
     546:	11 24       	eor	r1, r1
     548:	2f 93       	push	r18
     54a:	3f 93       	push	r19
     54c:	4f 93       	push	r20
     54e:	5f 93       	push	r21
     550:	6f 93       	push	r22
     552:	7f 93       	push	r23
     554:	8f 93       	push	r24
     556:	9f 93       	push	r25
     558:	af 93       	push	r26
     55a:	bf 93       	push	r27
     55c:	ef 93       	push	r30
     55e:	ff 93       	push	r31
     560:	df 93       	push	r29
     562:	cf 93       	push	r28
     564:	cd b7       	in	r28, 0x3d	; 61
     566:	de b7       	in	r29, 0x3e	; 62
	INT0_InterruptHandler();
     568:	e0 91 84 00 	lds	r30, 0x0084
     56c:	f0 91 85 00 	lds	r31, 0x0085
     570:	09 95       	icall
}
     572:	cf 91       	pop	r28
     574:	df 91       	pop	r29
     576:	ff 91       	pop	r31
     578:	ef 91       	pop	r30
     57a:	bf 91       	pop	r27
     57c:	af 91       	pop	r26
     57e:	9f 91       	pop	r25
     580:	8f 91       	pop	r24
     582:	7f 91       	pop	r23
     584:	6f 91       	pop	r22
     586:	5f 91       	pop	r21
     588:	4f 91       	pop	r20
     58a:	3f 91       	pop	r19
     58c:	2f 91       	pop	r18
     58e:	0f 90       	pop	r0
     590:	0f be       	out	0x3f, r0	; 63
     592:	0f 90       	pop	r0
     594:	1f 90       	pop	r1
     596:	18 95       	reti

00000598 <__vector_2>:
ISR(EXT_INT1)
{
     598:	1f 92       	push	r1
     59a:	0f 92       	push	r0
     59c:	0f b6       	in	r0, 0x3f	; 63
     59e:	0f 92       	push	r0
     5a0:	11 24       	eor	r1, r1
     5a2:	2f 93       	push	r18
     5a4:	3f 93       	push	r19
     5a6:	4f 93       	push	r20
     5a8:	5f 93       	push	r21
     5aa:	6f 93       	push	r22
     5ac:	7f 93       	push	r23
     5ae:	8f 93       	push	r24
     5b0:	9f 93       	push	r25
     5b2:	af 93       	push	r26
     5b4:	bf 93       	push	r27
     5b6:	ef 93       	push	r30
     5b8:	ff 93       	push	r31
     5ba:	df 93       	push	r29
     5bc:	cf 93       	push	r28
     5be:	cd b7       	in	r28, 0x3d	; 61
     5c0:	de b7       	in	r29, 0x3e	; 62
	INT1_InterruptHandler();
     5c2:	e0 91 86 00 	lds	r30, 0x0086
     5c6:	f0 91 87 00 	lds	r31, 0x0087
     5ca:	09 95       	icall
}
     5cc:	cf 91       	pop	r28
     5ce:	df 91       	pop	r29
     5d0:	ff 91       	pop	r31
     5d2:	ef 91       	pop	r30
     5d4:	bf 91       	pop	r27
     5d6:	af 91       	pop	r26
     5d8:	9f 91       	pop	r25
     5da:	8f 91       	pop	r24
     5dc:	7f 91       	pop	r23
     5de:	6f 91       	pop	r22
     5e0:	5f 91       	pop	r21
     5e2:	4f 91       	pop	r20
     5e4:	3f 91       	pop	r19
     5e6:	2f 91       	pop	r18
     5e8:	0f 90       	pop	r0
     5ea:	0f be       	out	0x3f, r0	; 63
     5ec:	0f 90       	pop	r0
     5ee:	1f 90       	pop	r1
     5f0:	18 95       	reti

000005f2 <__vector_3>:
ISR(EXT_INT2)
{
     5f2:	1f 92       	push	r1
     5f4:	0f 92       	push	r0
     5f6:	0f b6       	in	r0, 0x3f	; 63
     5f8:	0f 92       	push	r0
     5fa:	11 24       	eor	r1, r1
     5fc:	2f 93       	push	r18
     5fe:	3f 93       	push	r19
     600:	4f 93       	push	r20
     602:	5f 93       	push	r21
     604:	6f 93       	push	r22
     606:	7f 93       	push	r23
     608:	8f 93       	push	r24
     60a:	9f 93       	push	r25
     60c:	af 93       	push	r26
     60e:	bf 93       	push	r27
     610:	ef 93       	push	r30
     612:	ff 93       	push	r31
     614:	df 93       	push	r29
     616:	cf 93       	push	r28
     618:	cd b7       	in	r28, 0x3d	; 61
     61a:	de b7       	in	r29, 0x3e	; 62
	INT2_InterruptHandler();
     61c:	e0 91 88 00 	lds	r30, 0x0088
     620:	f0 91 89 00 	lds	r31, 0x0089
     624:	09 95       	icall
}
     626:	cf 91       	pop	r28
     628:	df 91       	pop	r29
     62a:	ff 91       	pop	r31
     62c:	ef 91       	pop	r30
     62e:	bf 91       	pop	r27
     630:	af 91       	pop	r26
     632:	9f 91       	pop	r25
     634:	8f 91       	pop	r24
     636:	7f 91       	pop	r23
     638:	6f 91       	pop	r22
     63a:	5f 91       	pop	r21
     63c:	4f 91       	pop	r20
     63e:	3f 91       	pop	r19
     640:	2f 91       	pop	r18
     642:	0f 90       	pop	r0
     644:	0f be       	out	0x3f, r0	; 63
     646:	0f 90       	pop	r0
     648:	1f 90       	pop	r1
     64a:	18 95       	reti

0000064c <GPIO_pin_direction_intialize>:
volatile Uchar8_t *ddr_registers[] = {&DDRA_REG,&DDRB_REG,&DDRC_REG,&DDRD_REG};
volatile Uchar8_t *port_registers[] = {&PORTA_REG,&PORTB_REG,&PORTC_REG,&PORTD_REG};
volatile Uchar8_t *pin_registers[] = {&PINA_REG,&PINB_REG,&PINC_REG,&PIND_REG};

Std_ReturnType GPIO_pin_direction_intialize(const ST_pin_config_t *_pin_config)
{
     64c:	df 93       	push	r29
     64e:	cf 93       	push	r28
     650:	00 d0       	rcall	.+0      	; 0x652 <GPIO_pin_direction_intialize+0x6>
     652:	00 d0       	rcall	.+0      	; 0x654 <GPIO_pin_direction_intialize+0x8>
     654:	0f 92       	push	r0
     656:	cd b7       	in	r28, 0x3d	; 61
     658:	de b7       	in	r29, 0x3e	; 62
     65a:	9b 83       	std	Y+3, r25	; 0x03
     65c:	8a 83       	std	Y+2, r24	; 0x02
	Std_ReturnType ret = E_NOT_OK;
     65e:	19 82       	std	Y+1, r1	; 0x01

	    if(NULL == _pin_config || _pin_config->pin > PORT_PIN_MAX_NUMBER)
     660:	8a 81       	ldd	r24, Y+2	; 0x02
     662:	9b 81       	ldd	r25, Y+3	; 0x03
     664:	00 97       	sbiw	r24, 0x00	; 0
     666:	61 f0       	breq	.+24     	; 0x680 <GPIO_pin_direction_intialize+0x34>
     668:	ea 81       	ldd	r30, Y+2	; 0x02
     66a:	fb 81       	ldd	r31, Y+3	; 0x03
     66c:	80 81       	ld	r24, Z
     66e:	86 95       	lsr	r24
     670:	86 95       	lsr	r24
     672:	86 95       	lsr	r24
     674:	87 70       	andi	r24, 0x07	; 7
     676:	88 2f       	mov	r24, r24
     678:	90 e0       	ldi	r25, 0x00	; 0
     67a:	88 30       	cpi	r24, 0x08	; 8
     67c:	91 05       	cpc	r25, r1
     67e:	14 f0       	brlt	.+4      	; 0x684 <GPIO_pin_direction_intialize+0x38>
	    {
	        ret = E_NOT_OK;
     680:	19 82       	std	Y+1, r1	; 0x01
     682:	7e c0       	rjmp	.+252    	; 0x780 <GPIO_pin_direction_intialize+0x134>
	    }
	    else
	    {
	        switch(_pin_config->direction)
     684:	ea 81       	ldd	r30, Y+2	; 0x02
     686:	fb 81       	ldd	r31, Y+3	; 0x03
     688:	80 81       	ld	r24, Z
     68a:	82 95       	swap	r24
     68c:	86 95       	lsr	r24
     68e:	86 95       	lsr	r24
     690:	83 70       	andi	r24, 0x03	; 3
     692:	81 70       	andi	r24, 0x01	; 1
     694:	28 2f       	mov	r18, r24
     696:	30 e0       	ldi	r19, 0x00	; 0
     698:	3d 83       	std	Y+5, r19	; 0x05
     69a:	2c 83       	std	Y+4, r18	; 0x04
     69c:	8c 81       	ldd	r24, Y+4	; 0x04
     69e:	9d 81       	ldd	r25, Y+5	; 0x05
     6a0:	00 97       	sbiw	r24, 0x00	; 0
     6a2:	c9 f1       	breq	.+114    	; 0x716 <GPIO_pin_direction_intialize+0xca>
     6a4:	2c 81       	ldd	r18, Y+4	; 0x04
     6a6:	3d 81       	ldd	r19, Y+5	; 0x05
     6a8:	21 30       	cpi	r18, 0x01	; 1
     6aa:	31 05       	cpc	r19, r1
     6ac:	09 f0       	breq	.+2      	; 0x6b0 <GPIO_pin_direction_intialize+0x64>
     6ae:	67 c0       	rjmp	.+206    	; 0x77e <GPIO_pin_direction_intialize+0x132>
	      {
	          case GPIO_DIRECTION_OUTPUT:
	          {
	              SET_BIT(*ddr_registers[_pin_config->port],_pin_config->pin);
     6b0:	ea 81       	ldd	r30, Y+2	; 0x02
     6b2:	fb 81       	ldd	r31, Y+3	; 0x03
     6b4:	80 81       	ld	r24, Z
     6b6:	87 70       	andi	r24, 0x07	; 7
     6b8:	88 2f       	mov	r24, r24
     6ba:	90 e0       	ldi	r25, 0x00	; 0
     6bc:	88 0f       	add	r24, r24
     6be:	99 1f       	adc	r25, r25
     6c0:	fc 01       	movw	r30, r24
     6c2:	e0 5a       	subi	r30, 0xA0	; 160
     6c4:	ff 4f       	sbci	r31, 0xFF	; 255
     6c6:	a0 81       	ld	r26, Z
     6c8:	b1 81       	ldd	r27, Z+1	; 0x01
     6ca:	ea 81       	ldd	r30, Y+2	; 0x02
     6cc:	fb 81       	ldd	r31, Y+3	; 0x03
     6ce:	80 81       	ld	r24, Z
     6d0:	87 70       	andi	r24, 0x07	; 7
     6d2:	88 2f       	mov	r24, r24
     6d4:	90 e0       	ldi	r25, 0x00	; 0
     6d6:	88 0f       	add	r24, r24
     6d8:	99 1f       	adc	r25, r25
     6da:	fc 01       	movw	r30, r24
     6dc:	e0 5a       	subi	r30, 0xA0	; 160
     6de:	ff 4f       	sbci	r31, 0xFF	; 255
     6e0:	01 90       	ld	r0, Z+
     6e2:	f0 81       	ld	r31, Z
     6e4:	e0 2d       	mov	r30, r0
     6e6:	80 81       	ld	r24, Z
     6e8:	48 2f       	mov	r20, r24
     6ea:	ea 81       	ldd	r30, Y+2	; 0x02
     6ec:	fb 81       	ldd	r31, Y+3	; 0x03
     6ee:	80 81       	ld	r24, Z
     6f0:	86 95       	lsr	r24
     6f2:	86 95       	lsr	r24
     6f4:	86 95       	lsr	r24
     6f6:	87 70       	andi	r24, 0x07	; 7
     6f8:	28 2f       	mov	r18, r24
     6fa:	30 e0       	ldi	r19, 0x00	; 0
     6fc:	81 e0       	ldi	r24, 0x01	; 1
     6fe:	90 e0       	ldi	r25, 0x00	; 0
     700:	02 2e       	mov	r0, r18
     702:	02 c0       	rjmp	.+4      	; 0x708 <GPIO_pin_direction_intialize+0xbc>
     704:	88 0f       	add	r24, r24
     706:	99 1f       	adc	r25, r25
     708:	0a 94       	dec	r0
     70a:	e2 f7       	brpl	.-8      	; 0x704 <GPIO_pin_direction_intialize+0xb8>
     70c:	84 2b       	or	r24, r20
     70e:	8c 93       	st	X, r24
	              ret = E_OK;
     710:	81 e0       	ldi	r24, 0x01	; 1
     712:	89 83       	std	Y+1, r24	; 0x01
     714:	35 c0       	rjmp	.+106    	; 0x780 <GPIO_pin_direction_intialize+0x134>
	              break;
	          }
	          case GPIO_DIRECTION_INPUT:
	          {
	              CLEAR_BIT(*ddr_registers[_pin_config->port],_pin_config->pin);
     716:	ea 81       	ldd	r30, Y+2	; 0x02
     718:	fb 81       	ldd	r31, Y+3	; 0x03
     71a:	80 81       	ld	r24, Z
     71c:	87 70       	andi	r24, 0x07	; 7
     71e:	88 2f       	mov	r24, r24
     720:	90 e0       	ldi	r25, 0x00	; 0
     722:	88 0f       	add	r24, r24
     724:	99 1f       	adc	r25, r25
     726:	fc 01       	movw	r30, r24
     728:	e0 5a       	subi	r30, 0xA0	; 160
     72a:	ff 4f       	sbci	r31, 0xFF	; 255
     72c:	a0 81       	ld	r26, Z
     72e:	b1 81       	ldd	r27, Z+1	; 0x01
     730:	ea 81       	ldd	r30, Y+2	; 0x02
     732:	fb 81       	ldd	r31, Y+3	; 0x03
     734:	80 81       	ld	r24, Z
     736:	87 70       	andi	r24, 0x07	; 7
     738:	88 2f       	mov	r24, r24
     73a:	90 e0       	ldi	r25, 0x00	; 0
     73c:	88 0f       	add	r24, r24
     73e:	99 1f       	adc	r25, r25
     740:	fc 01       	movw	r30, r24
     742:	e0 5a       	subi	r30, 0xA0	; 160
     744:	ff 4f       	sbci	r31, 0xFF	; 255
     746:	01 90       	ld	r0, Z+
     748:	f0 81       	ld	r31, Z
     74a:	e0 2d       	mov	r30, r0
     74c:	80 81       	ld	r24, Z
     74e:	48 2f       	mov	r20, r24
     750:	ea 81       	ldd	r30, Y+2	; 0x02
     752:	fb 81       	ldd	r31, Y+3	; 0x03
     754:	80 81       	ld	r24, Z
     756:	86 95       	lsr	r24
     758:	86 95       	lsr	r24
     75a:	86 95       	lsr	r24
     75c:	87 70       	andi	r24, 0x07	; 7
     75e:	28 2f       	mov	r18, r24
     760:	30 e0       	ldi	r19, 0x00	; 0
     762:	81 e0       	ldi	r24, 0x01	; 1
     764:	90 e0       	ldi	r25, 0x00	; 0
     766:	02 2e       	mov	r0, r18
     768:	02 c0       	rjmp	.+4      	; 0x76e <GPIO_pin_direction_intialize+0x122>
     76a:	88 0f       	add	r24, r24
     76c:	99 1f       	adc	r25, r25
     76e:	0a 94       	dec	r0
     770:	e2 f7       	brpl	.-8      	; 0x76a <GPIO_pin_direction_intialize+0x11e>
     772:	80 95       	com	r24
     774:	84 23       	and	r24, r20
     776:	8c 93       	st	X, r24
	              ret = E_OK;
     778:	81 e0       	ldi	r24, 0x01	; 1
     77a:	89 83       	std	Y+1, r24	; 0x01
     77c:	01 c0       	rjmp	.+2      	; 0x780 <GPIO_pin_direction_intialize+0x134>
	              break;
	          }
	          default : ret = E_NOT_OK ;
     77e:	19 82       	std	Y+1, r1	; 0x01
	      }
	    }

	    return ret;
     780:	89 81       	ldd	r24, Y+1	; 0x01
}
     782:	0f 90       	pop	r0
     784:	0f 90       	pop	r0
     786:	0f 90       	pop	r0
     788:	0f 90       	pop	r0
     78a:	0f 90       	pop	r0
     78c:	cf 91       	pop	r28
     78e:	df 91       	pop	r29
     790:	08 95       	ret

00000792 <GPIO_pin_get_direction_status>:


Std_ReturnType GPIO_pin_get_direction_status(const ST_pin_config_t *_pin_config , EN_direction_t *direction_status)
{
     792:	df 93       	push	r29
     794:	cf 93       	push	r28
     796:	00 d0       	rcall	.+0      	; 0x798 <GPIO_pin_get_direction_status+0x6>
     798:	00 d0       	rcall	.+0      	; 0x79a <GPIO_pin_get_direction_status+0x8>
     79a:	0f 92       	push	r0
     79c:	cd b7       	in	r28, 0x3d	; 61
     79e:	de b7       	in	r29, 0x3e	; 62
     7a0:	9b 83       	std	Y+3, r25	; 0x03
     7a2:	8a 83       	std	Y+2, r24	; 0x02
     7a4:	7d 83       	std	Y+5, r23	; 0x05
     7a6:	6c 83       	std	Y+4, r22	; 0x04
    Std_ReturnType ret = E_NOT_OK;
     7a8:	19 82       	std	Y+1, r1	; 0x01

    if(NULL == _pin_config || NULL == direction_status || _pin_config->pin > PORT_PIN_MAX_NUMBER)
     7aa:	8a 81       	ldd	r24, Y+2	; 0x02
     7ac:	9b 81       	ldd	r25, Y+3	; 0x03
     7ae:	00 97       	sbiw	r24, 0x00	; 0
     7b0:	81 f0       	breq	.+32     	; 0x7d2 <GPIO_pin_get_direction_status+0x40>
     7b2:	8c 81       	ldd	r24, Y+4	; 0x04
     7b4:	9d 81       	ldd	r25, Y+5	; 0x05
     7b6:	00 97       	sbiw	r24, 0x00	; 0
     7b8:	61 f0       	breq	.+24     	; 0x7d2 <GPIO_pin_get_direction_status+0x40>
     7ba:	ea 81       	ldd	r30, Y+2	; 0x02
     7bc:	fb 81       	ldd	r31, Y+3	; 0x03
     7be:	80 81       	ld	r24, Z
     7c0:	86 95       	lsr	r24
     7c2:	86 95       	lsr	r24
     7c4:	86 95       	lsr	r24
     7c6:	87 70       	andi	r24, 0x07	; 7
     7c8:	88 2f       	mov	r24, r24
     7ca:	90 e0       	ldi	r25, 0x00	; 0
     7cc:	88 30       	cpi	r24, 0x08	; 8
     7ce:	91 05       	cpc	r25, r1
     7d0:	14 f0       	brlt	.+4      	; 0x7d6 <GPIO_pin_get_direction_status+0x44>
    {
        ret = E_NOT_OK;
     7d2:	19 82       	std	Y+1, r1	; 0x01
     7d4:	27 c0       	rjmp	.+78     	; 0x824 <GPIO_pin_get_direction_status+0x92>
    }
    else
    {
        *direction_status = GET_BIT(*ddr_registers[_pin_config->port],_pin_config->pin);
     7d6:	ea 81       	ldd	r30, Y+2	; 0x02
     7d8:	fb 81       	ldd	r31, Y+3	; 0x03
     7da:	80 81       	ld	r24, Z
     7dc:	87 70       	andi	r24, 0x07	; 7
     7de:	88 2f       	mov	r24, r24
     7e0:	90 e0       	ldi	r25, 0x00	; 0
     7e2:	88 0f       	add	r24, r24
     7e4:	99 1f       	adc	r25, r25
     7e6:	fc 01       	movw	r30, r24
     7e8:	e0 5a       	subi	r30, 0xA0	; 160
     7ea:	ff 4f       	sbci	r31, 0xFF	; 255
     7ec:	01 90       	ld	r0, Z+
     7ee:	f0 81       	ld	r31, Z
     7f0:	e0 2d       	mov	r30, r0
     7f2:	80 81       	ld	r24, Z
     7f4:	28 2f       	mov	r18, r24
     7f6:	30 e0       	ldi	r19, 0x00	; 0
     7f8:	ea 81       	ldd	r30, Y+2	; 0x02
     7fa:	fb 81       	ldd	r31, Y+3	; 0x03
     7fc:	80 81       	ld	r24, Z
     7fe:	86 95       	lsr	r24
     800:	86 95       	lsr	r24
     802:	86 95       	lsr	r24
     804:	87 70       	andi	r24, 0x07	; 7
     806:	88 2f       	mov	r24, r24
     808:	90 e0       	ldi	r25, 0x00	; 0
     80a:	a9 01       	movw	r20, r18
     80c:	02 c0       	rjmp	.+4      	; 0x812 <GPIO_pin_get_direction_status+0x80>
     80e:	55 95       	asr	r21
     810:	47 95       	ror	r20
     812:	8a 95       	dec	r24
     814:	e2 f7       	brpl	.-8      	; 0x80e <GPIO_pin_get_direction_status+0x7c>
     816:	ca 01       	movw	r24, r20
     818:	81 70       	andi	r24, 0x01	; 1
     81a:	ec 81       	ldd	r30, Y+4	; 0x04
     81c:	fd 81       	ldd	r31, Y+5	; 0x05
     81e:	80 83       	st	Z, r24
		ret = E_OK;
     820:	81 e0       	ldi	r24, 0x01	; 1
     822:	89 83       	std	Y+1, r24	; 0x01
    }
    return ret;
     824:	89 81       	ldd	r24, Y+1	; 0x01
}
     826:	0f 90       	pop	r0
     828:	0f 90       	pop	r0
     82a:	0f 90       	pop	r0
     82c:	0f 90       	pop	r0
     82e:	0f 90       	pop	r0
     830:	cf 91       	pop	r28
     832:	df 91       	pop	r29
     834:	08 95       	ret

00000836 <GPIO_pin_write_logic>:
Std_ReturnType GPIO_pin_write_logic(const ST_pin_config_t *_pin_config , EN_logic_t logic)
{
     836:	df 93       	push	r29
     838:	cf 93       	push	r28
     83a:	00 d0       	rcall	.+0      	; 0x83c <GPIO_pin_write_logic+0x6>
     83c:	00 d0       	rcall	.+0      	; 0x83e <GPIO_pin_write_logic+0x8>
     83e:	00 d0       	rcall	.+0      	; 0x840 <GPIO_pin_write_logic+0xa>
     840:	cd b7       	in	r28, 0x3d	; 61
     842:	de b7       	in	r29, 0x3e	; 62
     844:	9b 83       	std	Y+3, r25	; 0x03
     846:	8a 83       	std	Y+2, r24	; 0x02
     848:	6c 83       	std	Y+4, r22	; 0x04
	 Std_ReturnType ret = E_NOT_OK;
     84a:	19 82       	std	Y+1, r1	; 0x01

	    if(NULL == _pin_config || _pin_config->pin > PORT_PIN_MAX_NUMBER)
     84c:	8a 81       	ldd	r24, Y+2	; 0x02
     84e:	9b 81       	ldd	r25, Y+3	; 0x03
     850:	00 97       	sbiw	r24, 0x00	; 0
     852:	61 f0       	breq	.+24     	; 0x86c <__stack+0xd>
     854:	ea 81       	ldd	r30, Y+2	; 0x02
     856:	fb 81       	ldd	r31, Y+3	; 0x03
     858:	80 81       	ld	r24, Z
     85a:	86 95       	lsr	r24
     85c:	86 95       	lsr	r24
     85e:	86 95       	lsr	r24
     860:	87 70       	andi	r24, 0x07	; 7
     862:	88 2f       	mov	r24, r24
     864:	90 e0       	ldi	r25, 0x00	; 0
     866:	88 30       	cpi	r24, 0x08	; 8
     868:	91 05       	cpc	r25, r1
     86a:	14 f0       	brlt	.+4      	; 0x870 <__stack+0x11>
	    {
	        ret = E_NOT_OK;
     86c:	19 82       	std	Y+1, r1	; 0x01
     86e:	77 c0       	rjmp	.+238    	; 0x95e <__stack+0xff>
	    }
	    else
	    {
	        switch(logic)
     870:	8c 81       	ldd	r24, Y+4	; 0x04
     872:	28 2f       	mov	r18, r24
     874:	30 e0       	ldi	r19, 0x00	; 0
     876:	3e 83       	std	Y+6, r19	; 0x06
     878:	2d 83       	std	Y+5, r18	; 0x05
     87a:	8d 81       	ldd	r24, Y+5	; 0x05
     87c:	9e 81       	ldd	r25, Y+6	; 0x06
     87e:	00 97       	sbiw	r24, 0x00	; 0
     880:	31 f0       	breq	.+12     	; 0x88e <__stack+0x2f>
     882:	2d 81       	ldd	r18, Y+5	; 0x05
     884:	3e 81       	ldd	r19, Y+6	; 0x06
     886:	21 30       	cpi	r18, 0x01	; 1
     888:	31 05       	cpc	r19, r1
     88a:	a9 f1       	breq	.+106    	; 0x8f6 <__stack+0x97>
     88c:	67 c0       	rjmp	.+206    	; 0x95c <__stack+0xfd>
	        {
	            case GPIO_LOGIC_LOW:
	            {
	                CLEAR_BIT(*port_registers[_pin_config->port],_pin_config->pin);
     88e:	ea 81       	ldd	r30, Y+2	; 0x02
     890:	fb 81       	ldd	r31, Y+3	; 0x03
     892:	80 81       	ld	r24, Z
     894:	87 70       	andi	r24, 0x07	; 7
     896:	88 2f       	mov	r24, r24
     898:	90 e0       	ldi	r25, 0x00	; 0
     89a:	88 0f       	add	r24, r24
     89c:	99 1f       	adc	r25, r25
     89e:	fc 01       	movw	r30, r24
     8a0:	e8 59       	subi	r30, 0x98	; 152
     8a2:	ff 4f       	sbci	r31, 0xFF	; 255
     8a4:	a0 81       	ld	r26, Z
     8a6:	b1 81       	ldd	r27, Z+1	; 0x01
     8a8:	ea 81       	ldd	r30, Y+2	; 0x02
     8aa:	fb 81       	ldd	r31, Y+3	; 0x03
     8ac:	80 81       	ld	r24, Z
     8ae:	87 70       	andi	r24, 0x07	; 7
     8b0:	88 2f       	mov	r24, r24
     8b2:	90 e0       	ldi	r25, 0x00	; 0
     8b4:	88 0f       	add	r24, r24
     8b6:	99 1f       	adc	r25, r25
     8b8:	fc 01       	movw	r30, r24
     8ba:	e8 59       	subi	r30, 0x98	; 152
     8bc:	ff 4f       	sbci	r31, 0xFF	; 255
     8be:	01 90       	ld	r0, Z+
     8c0:	f0 81       	ld	r31, Z
     8c2:	e0 2d       	mov	r30, r0
     8c4:	80 81       	ld	r24, Z
     8c6:	48 2f       	mov	r20, r24
     8c8:	ea 81       	ldd	r30, Y+2	; 0x02
     8ca:	fb 81       	ldd	r31, Y+3	; 0x03
     8cc:	80 81       	ld	r24, Z
     8ce:	86 95       	lsr	r24
     8d0:	86 95       	lsr	r24
     8d2:	86 95       	lsr	r24
     8d4:	87 70       	andi	r24, 0x07	; 7
     8d6:	28 2f       	mov	r18, r24
     8d8:	30 e0       	ldi	r19, 0x00	; 0
     8da:	81 e0       	ldi	r24, 0x01	; 1
     8dc:	90 e0       	ldi	r25, 0x00	; 0
     8de:	02 2e       	mov	r0, r18
     8e0:	02 c0       	rjmp	.+4      	; 0x8e6 <__stack+0x87>
     8e2:	88 0f       	add	r24, r24
     8e4:	99 1f       	adc	r25, r25
     8e6:	0a 94       	dec	r0
     8e8:	e2 f7       	brpl	.-8      	; 0x8e2 <__stack+0x83>
     8ea:	80 95       	com	r24
     8ec:	84 23       	and	r24, r20
     8ee:	8c 93       	st	X, r24
	                ret = E_OK;
     8f0:	81 e0       	ldi	r24, 0x01	; 1
     8f2:	89 83       	std	Y+1, r24	; 0x01
     8f4:	34 c0       	rjmp	.+104    	; 0x95e <__stack+0xff>
	                break;
	            }
	            case GPIO_LOGIC_HIGH:
	            {
	                SET_BIT(*port_registers[_pin_config->port],_pin_config->pin);
     8f6:	ea 81       	ldd	r30, Y+2	; 0x02
     8f8:	fb 81       	ldd	r31, Y+3	; 0x03
     8fa:	80 81       	ld	r24, Z
     8fc:	87 70       	andi	r24, 0x07	; 7
     8fe:	88 2f       	mov	r24, r24
     900:	90 e0       	ldi	r25, 0x00	; 0
     902:	88 0f       	add	r24, r24
     904:	99 1f       	adc	r25, r25
     906:	fc 01       	movw	r30, r24
     908:	e8 59       	subi	r30, 0x98	; 152
     90a:	ff 4f       	sbci	r31, 0xFF	; 255
     90c:	a0 81       	ld	r26, Z
     90e:	b1 81       	ldd	r27, Z+1	; 0x01
     910:	ea 81       	ldd	r30, Y+2	; 0x02
     912:	fb 81       	ldd	r31, Y+3	; 0x03
     914:	80 81       	ld	r24, Z
     916:	87 70       	andi	r24, 0x07	; 7
     918:	88 2f       	mov	r24, r24
     91a:	90 e0       	ldi	r25, 0x00	; 0
     91c:	88 0f       	add	r24, r24
     91e:	99 1f       	adc	r25, r25
     920:	fc 01       	movw	r30, r24
     922:	e8 59       	subi	r30, 0x98	; 152
     924:	ff 4f       	sbci	r31, 0xFF	; 255
     926:	01 90       	ld	r0, Z+
     928:	f0 81       	ld	r31, Z
     92a:	e0 2d       	mov	r30, r0
     92c:	80 81       	ld	r24, Z
     92e:	48 2f       	mov	r20, r24
     930:	ea 81       	ldd	r30, Y+2	; 0x02
     932:	fb 81       	ldd	r31, Y+3	; 0x03
     934:	80 81       	ld	r24, Z
     936:	86 95       	lsr	r24
     938:	86 95       	lsr	r24
     93a:	86 95       	lsr	r24
     93c:	87 70       	andi	r24, 0x07	; 7
     93e:	28 2f       	mov	r18, r24
     940:	30 e0       	ldi	r19, 0x00	; 0
     942:	81 e0       	ldi	r24, 0x01	; 1
     944:	90 e0       	ldi	r25, 0x00	; 0
     946:	02 2e       	mov	r0, r18
     948:	02 c0       	rjmp	.+4      	; 0x94e <__stack+0xef>
     94a:	88 0f       	add	r24, r24
     94c:	99 1f       	adc	r25, r25
     94e:	0a 94       	dec	r0
     950:	e2 f7       	brpl	.-8      	; 0x94a <__stack+0xeb>
     952:	84 2b       	or	r24, r20
     954:	8c 93       	st	X, r24
	                ret = E_OK;
     956:	81 e0       	ldi	r24, 0x01	; 1
     958:	89 83       	std	Y+1, r24	; 0x01
     95a:	01 c0       	rjmp	.+2      	; 0x95e <__stack+0xff>
	                break;
	            }
	            default : ret = E_NOT_OK;
     95c:	19 82       	std	Y+1, r1	; 0x01
	        }
	    }
	    return ret;
     95e:	89 81       	ldd	r24, Y+1	; 0x01

}
     960:	26 96       	adiw	r28, 0x06	; 6
     962:	0f b6       	in	r0, 0x3f	; 63
     964:	f8 94       	cli
     966:	de bf       	out	0x3e, r29	; 62
     968:	0f be       	out	0x3f, r0	; 63
     96a:	cd bf       	out	0x3d, r28	; 61
     96c:	cf 91       	pop	r28
     96e:	df 91       	pop	r29
     970:	08 95       	ret

00000972 <GPIO_pin_read_logic>:
Std_ReturnType GPIO_pin_read_logic(const ST_pin_config_t *_pin_config , EN_logic_t *logic_status)
{
     972:	df 93       	push	r29
     974:	cf 93       	push	r28
     976:	00 d0       	rcall	.+0      	; 0x978 <GPIO_pin_read_logic+0x6>
     978:	00 d0       	rcall	.+0      	; 0x97a <GPIO_pin_read_logic+0x8>
     97a:	0f 92       	push	r0
     97c:	cd b7       	in	r28, 0x3d	; 61
     97e:	de b7       	in	r29, 0x3e	; 62
     980:	9b 83       	std	Y+3, r25	; 0x03
     982:	8a 83       	std	Y+2, r24	; 0x02
     984:	7d 83       	std	Y+5, r23	; 0x05
     986:	6c 83       	std	Y+4, r22	; 0x04
    Std_ReturnType ret = E_NOT_OK;
     988:	19 82       	std	Y+1, r1	; 0x01

    if(NULL == _pin_config || NULL == logic_status || _pin_config->pin > PORT_PIN_MAX_NUMBER)
     98a:	8a 81       	ldd	r24, Y+2	; 0x02
     98c:	9b 81       	ldd	r25, Y+3	; 0x03
     98e:	00 97       	sbiw	r24, 0x00	; 0
     990:	81 f0       	breq	.+32     	; 0x9b2 <GPIO_pin_read_logic+0x40>
     992:	8c 81       	ldd	r24, Y+4	; 0x04
     994:	9d 81       	ldd	r25, Y+5	; 0x05
     996:	00 97       	sbiw	r24, 0x00	; 0
     998:	61 f0       	breq	.+24     	; 0x9b2 <GPIO_pin_read_logic+0x40>
     99a:	ea 81       	ldd	r30, Y+2	; 0x02
     99c:	fb 81       	ldd	r31, Y+3	; 0x03
     99e:	80 81       	ld	r24, Z
     9a0:	86 95       	lsr	r24
     9a2:	86 95       	lsr	r24
     9a4:	86 95       	lsr	r24
     9a6:	87 70       	andi	r24, 0x07	; 7
     9a8:	88 2f       	mov	r24, r24
     9aa:	90 e0       	ldi	r25, 0x00	; 0
     9ac:	88 30       	cpi	r24, 0x08	; 8
     9ae:	91 05       	cpc	r25, r1
     9b0:	14 f0       	brlt	.+4      	; 0x9b6 <GPIO_pin_read_logic+0x44>
    {
        ret = E_NOT_OK;
     9b2:	19 82       	std	Y+1, r1	; 0x01
     9b4:	27 c0       	rjmp	.+78     	; 0xa04 <GPIO_pin_read_logic+0x92>
    }
    else
    {
        *logic_status = GET_BIT(*pin_registers[_pin_config->port],_pin_config->pin);
     9b6:	ea 81       	ldd	r30, Y+2	; 0x02
     9b8:	fb 81       	ldd	r31, Y+3	; 0x03
     9ba:	80 81       	ld	r24, Z
     9bc:	87 70       	andi	r24, 0x07	; 7
     9be:	88 2f       	mov	r24, r24
     9c0:	90 e0       	ldi	r25, 0x00	; 0
     9c2:	88 0f       	add	r24, r24
     9c4:	99 1f       	adc	r25, r25
     9c6:	fc 01       	movw	r30, r24
     9c8:	e0 59       	subi	r30, 0x90	; 144
     9ca:	ff 4f       	sbci	r31, 0xFF	; 255
     9cc:	01 90       	ld	r0, Z+
     9ce:	f0 81       	ld	r31, Z
     9d0:	e0 2d       	mov	r30, r0
     9d2:	80 81       	ld	r24, Z
     9d4:	28 2f       	mov	r18, r24
     9d6:	30 e0       	ldi	r19, 0x00	; 0
     9d8:	ea 81       	ldd	r30, Y+2	; 0x02
     9da:	fb 81       	ldd	r31, Y+3	; 0x03
     9dc:	80 81       	ld	r24, Z
     9de:	86 95       	lsr	r24
     9e0:	86 95       	lsr	r24
     9e2:	86 95       	lsr	r24
     9e4:	87 70       	andi	r24, 0x07	; 7
     9e6:	88 2f       	mov	r24, r24
     9e8:	90 e0       	ldi	r25, 0x00	; 0
     9ea:	a9 01       	movw	r20, r18
     9ec:	02 c0       	rjmp	.+4      	; 0x9f2 <GPIO_pin_read_logic+0x80>
     9ee:	55 95       	asr	r21
     9f0:	47 95       	ror	r20
     9f2:	8a 95       	dec	r24
     9f4:	e2 f7       	brpl	.-8      	; 0x9ee <GPIO_pin_read_logic+0x7c>
     9f6:	ca 01       	movw	r24, r20
     9f8:	81 70       	andi	r24, 0x01	; 1
     9fa:	ec 81       	ldd	r30, Y+4	; 0x04
     9fc:	fd 81       	ldd	r31, Y+5	; 0x05
     9fe:	80 83       	st	Z, r24
        ret = E_OK;
     a00:	81 e0       	ldi	r24, 0x01	; 1
     a02:	89 83       	std	Y+1, r24	; 0x01
    }

    return ret;
     a04:	89 81       	ldd	r24, Y+1	; 0x01
}
     a06:	0f 90       	pop	r0
     a08:	0f 90       	pop	r0
     a0a:	0f 90       	pop	r0
     a0c:	0f 90       	pop	r0
     a0e:	0f 90       	pop	r0
     a10:	cf 91       	pop	r28
     a12:	df 91       	pop	r29
     a14:	08 95       	ret

00000a16 <GPIO_pin_toggle_logic>:
Std_ReturnType GPIO_pin_toggle_logic(const ST_pin_config_t *_pin_config)
{
     a16:	df 93       	push	r29
     a18:	cf 93       	push	r28
     a1a:	00 d0       	rcall	.+0      	; 0xa1c <GPIO_pin_toggle_logic+0x6>
     a1c:	0f 92       	push	r0
     a1e:	cd b7       	in	r28, 0x3d	; 61
     a20:	de b7       	in	r29, 0x3e	; 62
     a22:	9b 83       	std	Y+3, r25	; 0x03
     a24:	8a 83       	std	Y+2, r24	; 0x02
    Std_ReturnType ret = E_NOT_OK;
     a26:	19 82       	std	Y+1, r1	; 0x01

    if(NULL == _pin_config || _pin_config->pin > PORT_PIN_MAX_NUMBER - 1)
     a28:	8a 81       	ldd	r24, Y+2	; 0x02
     a2a:	9b 81       	ldd	r25, Y+3	; 0x03
     a2c:	00 97       	sbiw	r24, 0x00	; 0
     a2e:	61 f0       	breq	.+24     	; 0xa48 <GPIO_pin_toggle_logic+0x32>
     a30:	ea 81       	ldd	r30, Y+2	; 0x02
     a32:	fb 81       	ldd	r31, Y+3	; 0x03
     a34:	80 81       	ld	r24, Z
     a36:	86 95       	lsr	r24
     a38:	86 95       	lsr	r24
     a3a:	86 95       	lsr	r24
     a3c:	87 70       	andi	r24, 0x07	; 7
     a3e:	88 2f       	mov	r24, r24
     a40:	90 e0       	ldi	r25, 0x00	; 0
     a42:	87 30       	cpi	r24, 0x07	; 7
     a44:	91 05       	cpc	r25, r1
     a46:	14 f0       	brlt	.+4      	; 0xa4c <GPIO_pin_toggle_logic+0x36>
    {
        ret = E_NOT_OK;
     a48:	19 82       	std	Y+1, r1	; 0x01
     a4a:	32 c0       	rjmp	.+100    	; 0xab0 <GPIO_pin_toggle_logic+0x9a>
    }
    else
    {
       TOGGLE_BIT(*port_registers[_pin_config->port],_pin_config->pin);
     a4c:	ea 81       	ldd	r30, Y+2	; 0x02
     a4e:	fb 81       	ldd	r31, Y+3	; 0x03
     a50:	80 81       	ld	r24, Z
     a52:	87 70       	andi	r24, 0x07	; 7
     a54:	88 2f       	mov	r24, r24
     a56:	90 e0       	ldi	r25, 0x00	; 0
     a58:	88 0f       	add	r24, r24
     a5a:	99 1f       	adc	r25, r25
     a5c:	fc 01       	movw	r30, r24
     a5e:	e8 59       	subi	r30, 0x98	; 152
     a60:	ff 4f       	sbci	r31, 0xFF	; 255
     a62:	a0 81       	ld	r26, Z
     a64:	b1 81       	ldd	r27, Z+1	; 0x01
     a66:	ea 81       	ldd	r30, Y+2	; 0x02
     a68:	fb 81       	ldd	r31, Y+3	; 0x03
     a6a:	80 81       	ld	r24, Z
     a6c:	87 70       	andi	r24, 0x07	; 7
     a6e:	88 2f       	mov	r24, r24
     a70:	90 e0       	ldi	r25, 0x00	; 0
     a72:	88 0f       	add	r24, r24
     a74:	99 1f       	adc	r25, r25
     a76:	fc 01       	movw	r30, r24
     a78:	e8 59       	subi	r30, 0x98	; 152
     a7a:	ff 4f       	sbci	r31, 0xFF	; 255
     a7c:	01 90       	ld	r0, Z+
     a7e:	f0 81       	ld	r31, Z
     a80:	e0 2d       	mov	r30, r0
     a82:	80 81       	ld	r24, Z
     a84:	48 2f       	mov	r20, r24
     a86:	ea 81       	ldd	r30, Y+2	; 0x02
     a88:	fb 81       	ldd	r31, Y+3	; 0x03
     a8a:	80 81       	ld	r24, Z
     a8c:	86 95       	lsr	r24
     a8e:	86 95       	lsr	r24
     a90:	86 95       	lsr	r24
     a92:	87 70       	andi	r24, 0x07	; 7
     a94:	28 2f       	mov	r18, r24
     a96:	30 e0       	ldi	r19, 0x00	; 0
     a98:	81 e0       	ldi	r24, 0x01	; 1
     a9a:	90 e0       	ldi	r25, 0x00	; 0
     a9c:	02 2e       	mov	r0, r18
     a9e:	02 c0       	rjmp	.+4      	; 0xaa4 <GPIO_pin_toggle_logic+0x8e>
     aa0:	88 0f       	add	r24, r24
     aa2:	99 1f       	adc	r25, r25
     aa4:	0a 94       	dec	r0
     aa6:	e2 f7       	brpl	.-8      	; 0xaa0 <GPIO_pin_toggle_logic+0x8a>
     aa8:	84 27       	eor	r24, r20
     aaa:	8c 93       	st	X, r24
       ret = E_OK;
     aac:	81 e0       	ldi	r24, 0x01	; 1
     aae:	89 83       	std	Y+1, r24	; 0x01
    }

    return ret;
     ab0:	89 81       	ldd	r24, Y+1	; 0x01
}
     ab2:	0f 90       	pop	r0
     ab4:	0f 90       	pop	r0
     ab6:	0f 90       	pop	r0
     ab8:	cf 91       	pop	r28
     aba:	df 91       	pop	r29
     abc:	08 95       	ret

00000abe <GPIO_pin_intialize>:
Std_ReturnType GPIO_pin_intialize(const ST_pin_config_t *_pin_config)
{
     abe:	df 93       	push	r29
     ac0:	cf 93       	push	r28
     ac2:	00 d0       	rcall	.+0      	; 0xac4 <GPIO_pin_intialize+0x6>
     ac4:	0f 92       	push	r0
     ac6:	cd b7       	in	r28, 0x3d	; 61
     ac8:	de b7       	in	r29, 0x3e	; 62
     aca:	9b 83       	std	Y+3, r25	; 0x03
     acc:	8a 83       	std	Y+2, r24	; 0x02
    Std_ReturnType ret = E_NOT_OK;
     ace:	19 82       	std	Y+1, r1	; 0x01

    if(NULL == _pin_config)
     ad0:	8a 81       	ldd	r24, Y+2	; 0x02
     ad2:	9b 81       	ldd	r25, Y+3	; 0x03
     ad4:	00 97       	sbiw	r24, 0x00	; 0
     ad6:	11 f4       	brne	.+4      	; 0xadc <GPIO_pin_intialize+0x1e>
    {
        ret = E_NOT_OK;
     ad8:	19 82       	std	Y+1, r1	; 0x01
     ada:	12 c0       	rjmp	.+36     	; 0xb00 <GPIO_pin_intialize+0x42>
    }
    else
    {
       ret = GPIO_pin_direction_intialize(_pin_config);
     adc:	8a 81       	ldd	r24, Y+2	; 0x02
     ade:	9b 81       	ldd	r25, Y+3	; 0x03
     ae0:	0e 94 26 03 	call	0x64c	; 0x64c <GPIO_pin_direction_intialize>
     ae4:	89 83       	std	Y+1, r24	; 0x01
       ret = GPIO_pin_write_logic(_pin_config,_pin_config->logic);
     ae6:	ea 81       	ldd	r30, Y+2	; 0x02
     ae8:	fb 81       	ldd	r31, Y+3	; 0x03
     aea:	80 81       	ld	r24, Z
     aec:	88 1f       	adc	r24, r24
     aee:	88 27       	eor	r24, r24
     af0:	88 1f       	adc	r24, r24
     af2:	28 2f       	mov	r18, r24
     af4:	8a 81       	ldd	r24, Y+2	; 0x02
     af6:	9b 81       	ldd	r25, Y+3	; 0x03
     af8:	62 2f       	mov	r22, r18
     afa:	0e 94 1b 04 	call	0x836	; 0x836 <GPIO_pin_write_logic>
     afe:	89 83       	std	Y+1, r24	; 0x01
    }
    return ret;
     b00:	89 81       	ldd	r24, Y+1	; 0x01
}
     b02:	0f 90       	pop	r0
     b04:	0f 90       	pop	r0
     b06:	0f 90       	pop	r0
     b08:	cf 91       	pop	r28
     b0a:	df 91       	pop	r29
     b0c:	08 95       	ret

00000b0e <GPIO_port_direction_intialize>:




Std_ReturnType GPIO_port_direction_intialize(EN_port_index_t port , Uchar8_t direction)
{
     b0e:	df 93       	push	r29
     b10:	cf 93       	push	r28
     b12:	00 d0       	rcall	.+0      	; 0xb14 <GPIO_port_direction_intialize+0x6>
     b14:	0f 92       	push	r0
     b16:	cd b7       	in	r28, 0x3d	; 61
     b18:	de b7       	in	r29, 0x3e	; 62
     b1a:	8a 83       	std	Y+2, r24	; 0x02
     b1c:	6b 83       	std	Y+3, r22	; 0x03
    Std_ReturnType ret = E_NOT_OK;
     b1e:	19 82       	std	Y+1, r1	; 0x01
    if(port > PORT_MAX_NUMBER)
     b20:	8a 81       	ldd	r24, Y+2	; 0x02
     b22:	85 30       	cpi	r24, 0x05	; 5
     b24:	10 f0       	brcs	.+4      	; 0xb2a <GPIO_port_direction_intialize+0x1c>
    {
      ret = E_NOT_OK;
     b26:	19 82       	std	Y+1, r1	; 0x01
     b28:	0f c0       	rjmp	.+30     	; 0xb48 <GPIO_port_direction_intialize+0x3a>
    }
    else
    {
        *ddr_registers[port] = direction;
     b2a:	8a 81       	ldd	r24, Y+2	; 0x02
     b2c:	88 2f       	mov	r24, r24
     b2e:	90 e0       	ldi	r25, 0x00	; 0
     b30:	88 0f       	add	r24, r24
     b32:	99 1f       	adc	r25, r25
     b34:	fc 01       	movw	r30, r24
     b36:	e0 5a       	subi	r30, 0xA0	; 160
     b38:	ff 4f       	sbci	r31, 0xFF	; 255
     b3a:	01 90       	ld	r0, Z+
     b3c:	f0 81       	ld	r31, Z
     b3e:	e0 2d       	mov	r30, r0
     b40:	8b 81       	ldd	r24, Y+3	; 0x03
     b42:	80 83       	st	Z, r24
        ret = E_OK;
     b44:	81 e0       	ldi	r24, 0x01	; 1
     b46:	89 83       	std	Y+1, r24	; 0x01
    }
    return ret;
     b48:	89 81       	ldd	r24, Y+1	; 0x01
}
     b4a:	0f 90       	pop	r0
     b4c:	0f 90       	pop	r0
     b4e:	0f 90       	pop	r0
     b50:	cf 91       	pop	r28
     b52:	df 91       	pop	r29
     b54:	08 95       	ret

00000b56 <GPIO_port_get_direction_status>:
Std_ReturnType GPIO_port_get_direction_status(EN_port_index_t port , Uchar8_t *direction_status)
{
     b56:	df 93       	push	r29
     b58:	cf 93       	push	r28
     b5a:	00 d0       	rcall	.+0      	; 0xb5c <GPIO_port_get_direction_status+0x6>
     b5c:	00 d0       	rcall	.+0      	; 0xb5e <GPIO_port_get_direction_status+0x8>
     b5e:	cd b7       	in	r28, 0x3d	; 61
     b60:	de b7       	in	r29, 0x3e	; 62
     b62:	8a 83       	std	Y+2, r24	; 0x02
     b64:	7c 83       	std	Y+4, r23	; 0x04
     b66:	6b 83       	std	Y+3, r22	; 0x03
    Std_ReturnType ret = E_NOT_OK;
     b68:	19 82       	std	Y+1, r1	; 0x01

    if(NULL == direction_status || port > PORT_MAX_NUMBER)
     b6a:	8b 81       	ldd	r24, Y+3	; 0x03
     b6c:	9c 81       	ldd	r25, Y+4	; 0x04
     b6e:	00 97       	sbiw	r24, 0x00	; 0
     b70:	19 f0       	breq	.+6      	; 0xb78 <GPIO_port_get_direction_status+0x22>
     b72:	8a 81       	ldd	r24, Y+2	; 0x02
     b74:	85 30       	cpi	r24, 0x05	; 5
     b76:	10 f0       	brcs	.+4      	; 0xb7c <GPIO_port_get_direction_status+0x26>
    {
        ret = E_NOT_OK;
     b78:	19 82       	std	Y+1, r1	; 0x01
     b7a:	11 c0       	rjmp	.+34     	; 0xb9e <GPIO_port_get_direction_status+0x48>
    }
    else
    {
        *direction_status = *ddr_registers[port];
     b7c:	8a 81       	ldd	r24, Y+2	; 0x02
     b7e:	88 2f       	mov	r24, r24
     b80:	90 e0       	ldi	r25, 0x00	; 0
     b82:	88 0f       	add	r24, r24
     b84:	99 1f       	adc	r25, r25
     b86:	fc 01       	movw	r30, r24
     b88:	e0 5a       	subi	r30, 0xA0	; 160
     b8a:	ff 4f       	sbci	r31, 0xFF	; 255
     b8c:	01 90       	ld	r0, Z+
     b8e:	f0 81       	ld	r31, Z
     b90:	e0 2d       	mov	r30, r0
     b92:	80 81       	ld	r24, Z
     b94:	eb 81       	ldd	r30, Y+3	; 0x03
     b96:	fc 81       	ldd	r31, Y+4	; 0x04
     b98:	80 83       	st	Z, r24
        ret = E_OK;
     b9a:	81 e0       	ldi	r24, 0x01	; 1
     b9c:	89 83       	std	Y+1, r24	; 0x01
    }

    return ret;
     b9e:	89 81       	ldd	r24, Y+1	; 0x01
}
     ba0:	0f 90       	pop	r0
     ba2:	0f 90       	pop	r0
     ba4:	0f 90       	pop	r0
     ba6:	0f 90       	pop	r0
     ba8:	cf 91       	pop	r28
     baa:	df 91       	pop	r29
     bac:	08 95       	ret

00000bae <GPIO_port_write_logic>:
Std_ReturnType GPIO_port_write_logic(EN_port_index_t port , Uchar8_t logic)
{
     bae:	df 93       	push	r29
     bb0:	cf 93       	push	r28
     bb2:	00 d0       	rcall	.+0      	; 0xbb4 <GPIO_port_write_logic+0x6>
     bb4:	0f 92       	push	r0
     bb6:	cd b7       	in	r28, 0x3d	; 61
     bb8:	de b7       	in	r29, 0x3e	; 62
     bba:	8a 83       	std	Y+2, r24	; 0x02
     bbc:	6b 83       	std	Y+3, r22	; 0x03
    Std_ReturnType ret = E_NOT_OK;
     bbe:	19 82       	std	Y+1, r1	; 0x01
    if(port > PORT_MAX_NUMBER)
     bc0:	8a 81       	ldd	r24, Y+2	; 0x02
     bc2:	85 30       	cpi	r24, 0x05	; 5
     bc4:	10 f0       	brcs	.+4      	; 0xbca <GPIO_port_write_logic+0x1c>
    {
        ret = E_NOT_OK;
     bc6:	19 82       	std	Y+1, r1	; 0x01
     bc8:	0f c0       	rjmp	.+30     	; 0xbe8 <GPIO_port_write_logic+0x3a>
    }
    else
    {
        *port_registers[port] = logic;
     bca:	8a 81       	ldd	r24, Y+2	; 0x02
     bcc:	88 2f       	mov	r24, r24
     bce:	90 e0       	ldi	r25, 0x00	; 0
     bd0:	88 0f       	add	r24, r24
     bd2:	99 1f       	adc	r25, r25
     bd4:	fc 01       	movw	r30, r24
     bd6:	e8 59       	subi	r30, 0x98	; 152
     bd8:	ff 4f       	sbci	r31, 0xFF	; 255
     bda:	01 90       	ld	r0, Z+
     bdc:	f0 81       	ld	r31, Z
     bde:	e0 2d       	mov	r30, r0
     be0:	8b 81       	ldd	r24, Y+3	; 0x03
     be2:	80 83       	st	Z, r24
        ret = E_OK;
     be4:	81 e0       	ldi	r24, 0x01	; 1
     be6:	89 83       	std	Y+1, r24	; 0x01
    }
    return ret;
     be8:	89 81       	ldd	r24, Y+1	; 0x01
}
     bea:	0f 90       	pop	r0
     bec:	0f 90       	pop	r0
     bee:	0f 90       	pop	r0
     bf0:	cf 91       	pop	r28
     bf2:	df 91       	pop	r29
     bf4:	08 95       	ret

00000bf6 <GPIO_port_read_logic>:
Std_ReturnType GPIO_port_read_logic(EN_port_index_t port , Uchar8_t *logic_status)
{
     bf6:	df 93       	push	r29
     bf8:	cf 93       	push	r28
     bfa:	00 d0       	rcall	.+0      	; 0xbfc <GPIO_port_read_logic+0x6>
     bfc:	00 d0       	rcall	.+0      	; 0xbfe <GPIO_port_read_logic+0x8>
     bfe:	cd b7       	in	r28, 0x3d	; 61
     c00:	de b7       	in	r29, 0x3e	; 62
     c02:	8a 83       	std	Y+2, r24	; 0x02
     c04:	7c 83       	std	Y+4, r23	; 0x04
     c06:	6b 83       	std	Y+3, r22	; 0x03
    Std_ReturnType ret = E_NOT_OK;
     c08:	19 82       	std	Y+1, r1	; 0x01

    if(NULL == logic_status || port > PORT_MAX_NUMBER)
     c0a:	8b 81       	ldd	r24, Y+3	; 0x03
     c0c:	9c 81       	ldd	r25, Y+4	; 0x04
     c0e:	00 97       	sbiw	r24, 0x00	; 0
     c10:	19 f0       	breq	.+6      	; 0xc18 <GPIO_port_read_logic+0x22>
     c12:	8a 81       	ldd	r24, Y+2	; 0x02
     c14:	85 30       	cpi	r24, 0x05	; 5
     c16:	10 f0       	brcs	.+4      	; 0xc1c <GPIO_port_read_logic+0x26>
    {
        ret = E_NOT_OK;
     c18:	19 82       	std	Y+1, r1	; 0x01
     c1a:	11 c0       	rjmp	.+34     	; 0xc3e <GPIO_port_read_logic+0x48>
    }
    else
    {
        *logic_status = *pin_registers[port];
     c1c:	8a 81       	ldd	r24, Y+2	; 0x02
     c1e:	88 2f       	mov	r24, r24
     c20:	90 e0       	ldi	r25, 0x00	; 0
     c22:	88 0f       	add	r24, r24
     c24:	99 1f       	adc	r25, r25
     c26:	fc 01       	movw	r30, r24
     c28:	e0 59       	subi	r30, 0x90	; 144
     c2a:	ff 4f       	sbci	r31, 0xFF	; 255
     c2c:	01 90       	ld	r0, Z+
     c2e:	f0 81       	ld	r31, Z
     c30:	e0 2d       	mov	r30, r0
     c32:	80 81       	ld	r24, Z
     c34:	eb 81       	ldd	r30, Y+3	; 0x03
     c36:	fc 81       	ldd	r31, Y+4	; 0x04
     c38:	80 83       	st	Z, r24
        ret = E_OK;
     c3a:	81 e0       	ldi	r24, 0x01	; 1
     c3c:	89 83       	std	Y+1, r24	; 0x01
    }

    return ret;
     c3e:	89 81       	ldd	r24, Y+1	; 0x01
}
     c40:	0f 90       	pop	r0
     c42:	0f 90       	pop	r0
     c44:	0f 90       	pop	r0
     c46:	0f 90       	pop	r0
     c48:	cf 91       	pop	r28
     c4a:	df 91       	pop	r29
     c4c:	08 95       	ret

00000c4e <GPIO_port_toggle_logic>:
Std_ReturnType GPIO_port_toggle_logic(EN_port_index_t port)
{
     c4e:	df 93       	push	r29
     c50:	cf 93       	push	r28
     c52:	00 d0       	rcall	.+0      	; 0xc54 <GPIO_port_toggle_logic+0x6>
     c54:	cd b7       	in	r28, 0x3d	; 61
     c56:	de b7       	in	r29, 0x3e	; 62
     c58:	8a 83       	std	Y+2, r24	; 0x02
	   Std_ReturnType ret = E_NOT_OK;
     c5a:	19 82       	std	Y+1, r1	; 0x01
	       if(port > PORT_MAX_NUMBER)
     c5c:	8a 81       	ldd	r24, Y+2	; 0x02
     c5e:	85 30       	cpi	r24, 0x05	; 5
     c60:	10 f0       	brcs	.+4      	; 0xc66 <GPIO_port_toggle_logic+0x18>
	    {
	        ret = E_NOT_OK;
     c62:	19 82       	std	Y+1, r1	; 0x01
     c64:	1a c0       	rjmp	.+52     	; 0xc9a <GPIO_port_toggle_logic+0x4c>
	    }
	    else
	    {
	           *port_registers[port] ^= PORT_TOOGLE_MASK;
     c66:	8a 81       	ldd	r24, Y+2	; 0x02
     c68:	88 2f       	mov	r24, r24
     c6a:	90 e0       	ldi	r25, 0x00	; 0
     c6c:	88 0f       	add	r24, r24
     c6e:	99 1f       	adc	r25, r25
     c70:	fc 01       	movw	r30, r24
     c72:	e8 59       	subi	r30, 0x98	; 152
     c74:	ff 4f       	sbci	r31, 0xFF	; 255
     c76:	a0 81       	ld	r26, Z
     c78:	b1 81       	ldd	r27, Z+1	; 0x01
     c7a:	8a 81       	ldd	r24, Y+2	; 0x02
     c7c:	88 2f       	mov	r24, r24
     c7e:	90 e0       	ldi	r25, 0x00	; 0
     c80:	88 0f       	add	r24, r24
     c82:	99 1f       	adc	r25, r25
     c84:	fc 01       	movw	r30, r24
     c86:	e8 59       	subi	r30, 0x98	; 152
     c88:	ff 4f       	sbci	r31, 0xFF	; 255
     c8a:	01 90       	ld	r0, Z+
     c8c:	f0 81       	ld	r31, Z
     c8e:	e0 2d       	mov	r30, r0
     c90:	80 81       	ld	r24, Z
     c92:	80 95       	com	r24
     c94:	8c 93       	st	X, r24
	           ret = E_OK;
     c96:	81 e0       	ldi	r24, 0x01	; 1
     c98:	89 83       	std	Y+1, r24	; 0x01
	    }
	    return ret;
     c9a:	89 81       	ldd	r24, Y+1	; 0x01
}
     c9c:	0f 90       	pop	r0
     c9e:	0f 90       	pop	r0
     ca0:	cf 91       	pop	r28
     ca2:	df 91       	pop	r29
     ca4:	08 95       	ret

00000ca6 <PUSH_BTN_intialize>:
 */

#include"PB_interface.h"

Std_ReturnType PUSH_BTN_intialize(const ST_PUSH_BTN_t *btn)
{
     ca6:	df 93       	push	r29
     ca8:	cf 93       	push	r28
     caa:	00 d0       	rcall	.+0      	; 0xcac <PUSH_BTN_intialize+0x6>
     cac:	0f 92       	push	r0
     cae:	cd b7       	in	r28, 0x3d	; 61
     cb0:	de b7       	in	r29, 0x3e	; 62
     cb2:	9b 83       	std	Y+3, r25	; 0x03
     cb4:	8a 83       	std	Y+2, r24	; 0x02
	Std_ReturnType ret = E_NOT_OK;
     cb6:	19 82       	std	Y+1, r1	; 0x01
	if(NULL == btn)
     cb8:	8a 81       	ldd	r24, Y+2	; 0x02
     cba:	9b 81       	ldd	r25, Y+3	; 0x03
     cbc:	00 97       	sbiw	r24, 0x00	; 0
     cbe:	11 f4       	brne	.+4      	; 0xcc4 <PUSH_BTN_intialize+0x1e>
	{
		ret = E_NOT_OK;
     cc0:	19 82       	std	Y+1, r1	; 0x01
     cc2:	05 c0       	rjmp	.+10     	; 0xcce <PUSH_BTN_intialize+0x28>
	}
	else
	{
		ret = GPIO_pin_direction_intialize(&(btn->PUSH_BTN_pin));
     cc4:	8a 81       	ldd	r24, Y+2	; 0x02
     cc6:	9b 81       	ldd	r25, Y+3	; 0x03
     cc8:	0e 94 26 03 	call	0x64c	; 0x64c <GPIO_pin_direction_intialize>
     ccc:	89 83       	std	Y+1, r24	; 0x01
	}
	return ret;
     cce:	89 81       	ldd	r24, Y+1	; 0x01
}
     cd0:	0f 90       	pop	r0
     cd2:	0f 90       	pop	r0
     cd4:	0f 90       	pop	r0
     cd6:	cf 91       	pop	r28
     cd8:	df 91       	pop	r29
     cda:	08 95       	ret

00000cdc <PUSH_BTN_read_state>:

Std_ReturnType PUSH_BTN_read_state(const ST_PUSH_BTN_t *btn , EN_PUSH_BTN_state_t *btn_state)
{
     cdc:	df 93       	push	r29
     cde:	cf 93       	push	r28
     ce0:	00 d0       	rcall	.+0      	; 0xce2 <PUSH_BTN_read_state+0x6>
     ce2:	00 d0       	rcall	.+0      	; 0xce4 <PUSH_BTN_read_state+0x8>
     ce4:	00 d0       	rcall	.+0      	; 0xce6 <PUSH_BTN_read_state+0xa>
     ce6:	cd b7       	in	r28, 0x3d	; 61
     ce8:	de b7       	in	r29, 0x3e	; 62
     cea:	9c 83       	std	Y+4, r25	; 0x04
     cec:	8b 83       	std	Y+3, r24	; 0x03
     cee:	7e 83       	std	Y+6, r23	; 0x06
     cf0:	6d 83       	std	Y+5, r22	; 0x05
	Std_ReturnType ret = E_NOT_OK;
     cf2:	19 82       	std	Y+1, r1	; 0x01
	if(NULL == btn || NULL == btn_state )
     cf4:	8b 81       	ldd	r24, Y+3	; 0x03
     cf6:	9c 81       	ldd	r25, Y+4	; 0x04
     cf8:	00 97       	sbiw	r24, 0x00	; 0
     cfa:	21 f0       	breq	.+8      	; 0xd04 <PUSH_BTN_read_state+0x28>
     cfc:	8d 81       	ldd	r24, Y+5	; 0x05
     cfe:	9e 81       	ldd	r25, Y+6	; 0x06
     d00:	00 97       	sbiw	r24, 0x00	; 0
     d02:	11 f4       	brne	.+4      	; 0xd08 <PUSH_BTN_read_state+0x2c>
	{
		ret = E_NOT_OK;
     d04:	19 82       	std	Y+1, r1	; 0x01
     d06:	2d c0       	rjmp	.+90     	; 0xd62 <PUSH_BTN_read_state+0x86>
	}
	else
	{
		EN_logic_t pin_logic_status = GPIO_LOGIC_LOW;
     d08:	1a 82       	std	Y+2, r1	; 0x02
		ret = GPIO_pin_read_logic(&(btn->PUSH_BTN_pin) , &pin_logic_status);
     d0a:	8b 81       	ldd	r24, Y+3	; 0x03
     d0c:	9c 81       	ldd	r25, Y+4	; 0x04
     d0e:	9e 01       	movw	r18, r28
     d10:	2e 5f       	subi	r18, 0xFE	; 254
     d12:	3f 4f       	sbci	r19, 0xFF	; 255
     d14:	b9 01       	movw	r22, r18
     d16:	0e 94 b9 04 	call	0x972	; 0x972 <GPIO_pin_read_logic>
     d1a:	89 83       	std	Y+1, r24	; 0x01
		if(PUSH_BTN_PULL_UP == btn->PUSH_BTN_connection)
     d1c:	eb 81       	ldd	r30, Y+3	; 0x03
     d1e:	fc 81       	ldd	r31, Y+4	; 0x04
     d20:	82 81       	ldd	r24, Z+2	; 0x02
     d22:	88 23       	and	r24, r24
     d24:	61 f4       	brne	.+24     	; 0xd3e <PUSH_BTN_read_state+0x62>
		{
			if(GPIO_LOGIC_HIGH == pin_logic_status)
     d26:	8a 81       	ldd	r24, Y+2	; 0x02
     d28:	81 30       	cpi	r24, 0x01	; 1
     d2a:	29 f4       	brne	.+10     	; 0xd36 <PUSH_BTN_read_state+0x5a>
			{
				*btn_state = PUSH_BTN_STATE_RELEASED;
     d2c:	ed 81       	ldd	r30, Y+5	; 0x05
     d2e:	fe 81       	ldd	r31, Y+6	; 0x06
     d30:	81 e0       	ldi	r24, 0x01	; 1
     d32:	80 83       	st	Z, r24
     d34:	14 c0       	rjmp	.+40     	; 0xd5e <PUSH_BTN_read_state+0x82>
			}
			else
			{
				*btn_state = PUSH_BTN_STATE_PRESSED;
     d36:	ed 81       	ldd	r30, Y+5	; 0x05
     d38:	fe 81       	ldd	r31, Y+6	; 0x06
     d3a:	10 82       	st	Z, r1
     d3c:	10 c0       	rjmp	.+32     	; 0xd5e <PUSH_BTN_read_state+0x82>
			}
		}
		else if(PUSH_BTN_PULL_DOWN == btn->PUSH_BTN_connection)
     d3e:	eb 81       	ldd	r30, Y+3	; 0x03
     d40:	fc 81       	ldd	r31, Y+4	; 0x04
     d42:	82 81       	ldd	r24, Z+2	; 0x02
     d44:	81 30       	cpi	r24, 0x01	; 1
     d46:	59 f4       	brne	.+22     	; 0xd5e <PUSH_BTN_read_state+0x82>
		{
			if(GPIO_LOGIC_HIGH == pin_logic_status)
     d48:	8a 81       	ldd	r24, Y+2	; 0x02
     d4a:	81 30       	cpi	r24, 0x01	; 1
     d4c:	21 f4       	brne	.+8      	; 0xd56 <PUSH_BTN_read_state+0x7a>
			{
				*btn_state = PUSH_BTN_STATE_PRESSED;
     d4e:	ed 81       	ldd	r30, Y+5	; 0x05
     d50:	fe 81       	ldd	r31, Y+6	; 0x06
     d52:	10 82       	st	Z, r1
     d54:	04 c0       	rjmp	.+8      	; 0xd5e <PUSH_BTN_read_state+0x82>
			}
			else
			{
				*btn_state = PUSH_BTN_STATE_RELEASED;
     d56:	ed 81       	ldd	r30, Y+5	; 0x05
     d58:	fe 81       	ldd	r31, Y+6	; 0x06
     d5a:	81 e0       	ldi	r24, 0x01	; 1
     d5c:	80 83       	st	Z, r24
			}
		}
		else{/* nothing */}
		ret = E_OK;
     d5e:	81 e0       	ldi	r24, 0x01	; 1
     d60:	89 83       	std	Y+1, r24	; 0x01
	}

	return ret;
     d62:	89 81       	ldd	r24, Y+1	; 0x01
}
     d64:	26 96       	adiw	r28, 0x06	; 6
     d66:	0f b6       	in	r0, 0x3f	; 63
     d68:	f8 94       	cli
     d6a:	de bf       	out	0x3e, r29	; 62
     d6c:	0f be       	out	0x3f, r0	; 63
     d6e:	cd bf       	out	0x3d, r28	; 61
     d70:	cf 91       	pop	r28
     d72:	df 91       	pop	r29
     d74:	08 95       	ret

00000d76 <LED_initialize>:
 */

#include"LED_interface.h"

Std_ReturnType LED_initialize(const ST_led_t *led)
{
     d76:	df 93       	push	r29
     d78:	cf 93       	push	r28
     d7a:	00 d0       	rcall	.+0      	; 0xd7c <LED_initialize+0x6>
     d7c:	00 d0       	rcall	.+0      	; 0xd7e <LED_initialize+0x8>
     d7e:	cd b7       	in	r28, 0x3d	; 61
     d80:	de b7       	in	r29, 0x3e	; 62
     d82:	9c 83       	std	Y+4, r25	; 0x04
     d84:	8b 83       	std	Y+3, r24	; 0x03
	Std_ReturnType ret = E_NOT_OK;
     d86:	19 82       	std	Y+1, r1	; 0x01
	if(NULL == led)
     d88:	8b 81       	ldd	r24, Y+3	; 0x03
     d8a:	9c 81       	ldd	r25, Y+4	; 0x04
     d8c:	00 97       	sbiw	r24, 0x00	; 0
     d8e:	11 f4       	brne	.+4      	; 0xd94 <LED_initialize+0x1e>
	{
		ret = E_NOT_OK;
     d90:	19 82       	std	Y+1, r1	; 0x01
     d92:	35 c0       	rjmp	.+106    	; 0xdfe <LED_initialize+0x88>
		{
			.port = led->port_name,
			.pin = led->pin,
			.direction = GPIO_DIRECTION_OUTPUT,
			.logic = led->led_status
		};
     d94:	eb 81       	ldd	r30, Y+3	; 0x03
     d96:	fc 81       	ldd	r31, Y+4	; 0x04
     d98:	80 81       	ld	r24, Z
     d9a:	28 2f       	mov	r18, r24
     d9c:	27 70       	andi	r18, 0x07	; 7
     d9e:	eb 81       	ldd	r30, Y+3	; 0x03
     da0:	fc 81       	ldd	r31, Y+4	; 0x04
     da2:	80 81       	ld	r24, Z
     da4:	98 2f       	mov	r25, r24
     da6:	96 95       	lsr	r25
     da8:	96 95       	lsr	r25
     daa:	96 95       	lsr	r25
     dac:	97 70       	andi	r25, 0x07	; 7
     dae:	eb 81       	ldd	r30, Y+3	; 0x03
     db0:	fc 81       	ldd	r31, Y+4	; 0x04
     db2:	80 81       	ld	r24, Z
     db4:	38 2f       	mov	r19, r24
     db6:	32 95       	swap	r19
     db8:	36 95       	lsr	r19
     dba:	36 95       	lsr	r19
     dbc:	33 70       	andi	r19, 0x03	; 3
     dbe:	31 70       	andi	r19, 0x01	; 1
     dc0:	27 70       	andi	r18, 0x07	; 7
     dc2:	8a 81       	ldd	r24, Y+2	; 0x02
     dc4:	88 7f       	andi	r24, 0xF8	; 248
     dc6:	82 2b       	or	r24, r18
     dc8:	8a 83       	std	Y+2, r24	; 0x02
     dca:	89 2f       	mov	r24, r25
     dcc:	87 70       	andi	r24, 0x07	; 7
     dce:	98 2f       	mov	r25, r24
     dd0:	99 0f       	add	r25, r25
     dd2:	99 0f       	add	r25, r25
     dd4:	99 0f       	add	r25, r25
     dd6:	8a 81       	ldd	r24, Y+2	; 0x02
     dd8:	87 7c       	andi	r24, 0xC7	; 199
     dda:	89 2b       	or	r24, r25
     ddc:	8a 83       	std	Y+2, r24	; 0x02
     dde:	8a 81       	ldd	r24, Y+2	; 0x02
     de0:	80 64       	ori	r24, 0x40	; 64
     de2:	8a 83       	std	Y+2, r24	; 0x02
     de4:	93 2f       	mov	r25, r19
     de6:	97 95       	ror	r25
     de8:	99 27       	eor	r25, r25
     dea:	97 95       	ror	r25
     dec:	8a 81       	ldd	r24, Y+2	; 0x02
     dee:	8f 77       	andi	r24, 0x7F	; 127
     df0:	89 2b       	or	r24, r25
     df2:	8a 83       	std	Y+2, r24	; 0x02
		ret = GPIO_pin_intialize(&LED_pin_obj);
     df4:	ce 01       	movw	r24, r28
     df6:	02 96       	adiw	r24, 0x02	; 2
     df8:	0e 94 5f 05 	call	0xabe	; 0xabe <GPIO_pin_intialize>
     dfc:	89 83       	std	Y+1, r24	; 0x01
	}
	return ret;
     dfe:	89 81       	ldd	r24, Y+1	; 0x01
}
     e00:	0f 90       	pop	r0
     e02:	0f 90       	pop	r0
     e04:	0f 90       	pop	r0
     e06:	0f 90       	pop	r0
     e08:	cf 91       	pop	r28
     e0a:	df 91       	pop	r29
     e0c:	08 95       	ret

00000e0e <LED_turn_on>:
Std_ReturnType LED_turn_on(const ST_led_t *led)
{
     e0e:	df 93       	push	r29
     e10:	cf 93       	push	r28
     e12:	00 d0       	rcall	.+0      	; 0xe14 <LED_turn_on+0x6>
     e14:	00 d0       	rcall	.+0      	; 0xe16 <LED_turn_on+0x8>
     e16:	cd b7       	in	r28, 0x3d	; 61
     e18:	de b7       	in	r29, 0x3e	; 62
     e1a:	9c 83       	std	Y+4, r25	; 0x04
     e1c:	8b 83       	std	Y+3, r24	; 0x03
	Std_ReturnType ret = E_NOT_OK;
     e1e:	19 82       	std	Y+1, r1	; 0x01
	if(NULL == led)
     e20:	8b 81       	ldd	r24, Y+3	; 0x03
     e22:	9c 81       	ldd	r25, Y+4	; 0x04
     e24:	00 97       	sbiw	r24, 0x00	; 0
     e26:	11 f4       	brne	.+4      	; 0xe2c <LED_turn_on+0x1e>
	{
		ret = E_NOT_OK;
     e28:	19 82       	std	Y+1, r1	; 0x01
     e2a:	36 c0       	rjmp	.+108    	; 0xe98 <LED_turn_on+0x8a>
		{
				.port = led->port_name,
				.pin = led->pin,
				.direction = GPIO_DIRECTION_OUTPUT,
				.logic = led->led_status
		};
     e2c:	eb 81       	ldd	r30, Y+3	; 0x03
     e2e:	fc 81       	ldd	r31, Y+4	; 0x04
     e30:	80 81       	ld	r24, Z
     e32:	28 2f       	mov	r18, r24
     e34:	27 70       	andi	r18, 0x07	; 7
     e36:	eb 81       	ldd	r30, Y+3	; 0x03
     e38:	fc 81       	ldd	r31, Y+4	; 0x04
     e3a:	80 81       	ld	r24, Z
     e3c:	98 2f       	mov	r25, r24
     e3e:	96 95       	lsr	r25
     e40:	96 95       	lsr	r25
     e42:	96 95       	lsr	r25
     e44:	97 70       	andi	r25, 0x07	; 7
     e46:	eb 81       	ldd	r30, Y+3	; 0x03
     e48:	fc 81       	ldd	r31, Y+4	; 0x04
     e4a:	80 81       	ld	r24, Z
     e4c:	38 2f       	mov	r19, r24
     e4e:	32 95       	swap	r19
     e50:	36 95       	lsr	r19
     e52:	36 95       	lsr	r19
     e54:	33 70       	andi	r19, 0x03	; 3
     e56:	31 70       	andi	r19, 0x01	; 1
     e58:	27 70       	andi	r18, 0x07	; 7
     e5a:	8a 81       	ldd	r24, Y+2	; 0x02
     e5c:	88 7f       	andi	r24, 0xF8	; 248
     e5e:	82 2b       	or	r24, r18
     e60:	8a 83       	std	Y+2, r24	; 0x02
     e62:	89 2f       	mov	r24, r25
     e64:	87 70       	andi	r24, 0x07	; 7
     e66:	98 2f       	mov	r25, r24
     e68:	99 0f       	add	r25, r25
     e6a:	99 0f       	add	r25, r25
     e6c:	99 0f       	add	r25, r25
     e6e:	8a 81       	ldd	r24, Y+2	; 0x02
     e70:	87 7c       	andi	r24, 0xC7	; 199
     e72:	89 2b       	or	r24, r25
     e74:	8a 83       	std	Y+2, r24	; 0x02
     e76:	8a 81       	ldd	r24, Y+2	; 0x02
     e78:	80 64       	ori	r24, 0x40	; 64
     e7a:	8a 83       	std	Y+2, r24	; 0x02
     e7c:	93 2f       	mov	r25, r19
     e7e:	97 95       	ror	r25
     e80:	99 27       	eor	r25, r25
     e82:	97 95       	ror	r25
     e84:	8a 81       	ldd	r24, Y+2	; 0x02
     e86:	8f 77       	andi	r24, 0x7F	; 127
     e88:	89 2b       	or	r24, r25
     e8a:	8a 83       	std	Y+2, r24	; 0x02
		ret = GPIO_pin_write_logic(&LED_pin_obj , GPIO_LOGIC_HIGH);
     e8c:	ce 01       	movw	r24, r28
     e8e:	02 96       	adiw	r24, 0x02	; 2
     e90:	61 e0       	ldi	r22, 0x01	; 1
     e92:	0e 94 1b 04 	call	0x836	; 0x836 <GPIO_pin_write_logic>
     e96:	89 83       	std	Y+1, r24	; 0x01
	}
	return ret;
     e98:	89 81       	ldd	r24, Y+1	; 0x01
}
     e9a:	0f 90       	pop	r0
     e9c:	0f 90       	pop	r0
     e9e:	0f 90       	pop	r0
     ea0:	0f 90       	pop	r0
     ea2:	cf 91       	pop	r28
     ea4:	df 91       	pop	r29
     ea6:	08 95       	ret

00000ea8 <LED_turn_off>:
Std_ReturnType LED_turn_off(const ST_led_t *led)
{
     ea8:	df 93       	push	r29
     eaa:	cf 93       	push	r28
     eac:	00 d0       	rcall	.+0      	; 0xeae <LED_turn_off+0x6>
     eae:	00 d0       	rcall	.+0      	; 0xeb0 <LED_turn_off+0x8>
     eb0:	cd b7       	in	r28, 0x3d	; 61
     eb2:	de b7       	in	r29, 0x3e	; 62
     eb4:	9c 83       	std	Y+4, r25	; 0x04
     eb6:	8b 83       	std	Y+3, r24	; 0x03
	Std_ReturnType ret = E_NOT_OK;
     eb8:	19 82       	std	Y+1, r1	; 0x01
	if(NULL == led)
     eba:	8b 81       	ldd	r24, Y+3	; 0x03
     ebc:	9c 81       	ldd	r25, Y+4	; 0x04
     ebe:	00 97       	sbiw	r24, 0x00	; 0
     ec0:	11 f4       	brne	.+4      	; 0xec6 <LED_turn_off+0x1e>
	{
		ret = E_NOT_OK;
     ec2:	19 82       	std	Y+1, r1	; 0x01
     ec4:	36 c0       	rjmp	.+108    	; 0xf32 <LED_turn_off+0x8a>
		{
				.port = led->port_name,
				.pin = led->pin,
				.direction = GPIO_DIRECTION_OUTPUT,
				.logic = led->led_status
		};
     ec6:	eb 81       	ldd	r30, Y+3	; 0x03
     ec8:	fc 81       	ldd	r31, Y+4	; 0x04
     eca:	80 81       	ld	r24, Z
     ecc:	28 2f       	mov	r18, r24
     ece:	27 70       	andi	r18, 0x07	; 7
     ed0:	eb 81       	ldd	r30, Y+3	; 0x03
     ed2:	fc 81       	ldd	r31, Y+4	; 0x04
     ed4:	80 81       	ld	r24, Z
     ed6:	98 2f       	mov	r25, r24
     ed8:	96 95       	lsr	r25
     eda:	96 95       	lsr	r25
     edc:	96 95       	lsr	r25
     ede:	97 70       	andi	r25, 0x07	; 7
     ee0:	eb 81       	ldd	r30, Y+3	; 0x03
     ee2:	fc 81       	ldd	r31, Y+4	; 0x04
     ee4:	80 81       	ld	r24, Z
     ee6:	38 2f       	mov	r19, r24
     ee8:	32 95       	swap	r19
     eea:	36 95       	lsr	r19
     eec:	36 95       	lsr	r19
     eee:	33 70       	andi	r19, 0x03	; 3
     ef0:	31 70       	andi	r19, 0x01	; 1
     ef2:	27 70       	andi	r18, 0x07	; 7
     ef4:	8a 81       	ldd	r24, Y+2	; 0x02
     ef6:	88 7f       	andi	r24, 0xF8	; 248
     ef8:	82 2b       	or	r24, r18
     efa:	8a 83       	std	Y+2, r24	; 0x02
     efc:	89 2f       	mov	r24, r25
     efe:	87 70       	andi	r24, 0x07	; 7
     f00:	98 2f       	mov	r25, r24
     f02:	99 0f       	add	r25, r25
     f04:	99 0f       	add	r25, r25
     f06:	99 0f       	add	r25, r25
     f08:	8a 81       	ldd	r24, Y+2	; 0x02
     f0a:	87 7c       	andi	r24, 0xC7	; 199
     f0c:	89 2b       	or	r24, r25
     f0e:	8a 83       	std	Y+2, r24	; 0x02
     f10:	8a 81       	ldd	r24, Y+2	; 0x02
     f12:	80 64       	ori	r24, 0x40	; 64
     f14:	8a 83       	std	Y+2, r24	; 0x02
     f16:	93 2f       	mov	r25, r19
     f18:	97 95       	ror	r25
     f1a:	99 27       	eor	r25, r25
     f1c:	97 95       	ror	r25
     f1e:	8a 81       	ldd	r24, Y+2	; 0x02
     f20:	8f 77       	andi	r24, 0x7F	; 127
     f22:	89 2b       	or	r24, r25
     f24:	8a 83       	std	Y+2, r24	; 0x02
		ret = GPIO_pin_write_logic(&LED_pin_obj , GPIO_LOGIC_LOW);
     f26:	ce 01       	movw	r24, r28
     f28:	02 96       	adiw	r24, 0x02	; 2
     f2a:	60 e0       	ldi	r22, 0x00	; 0
     f2c:	0e 94 1b 04 	call	0x836	; 0x836 <GPIO_pin_write_logic>
     f30:	89 83       	std	Y+1, r24	; 0x01
	}
	return ret;
     f32:	89 81       	ldd	r24, Y+1	; 0x01
}
     f34:	0f 90       	pop	r0
     f36:	0f 90       	pop	r0
     f38:	0f 90       	pop	r0
     f3a:	0f 90       	pop	r0
     f3c:	cf 91       	pop	r28
     f3e:	df 91       	pop	r29
     f40:	08 95       	ret

00000f42 <LED_toggle>:
Std_ReturnType LED_toggle(const ST_led_t *led)
{
     f42:	df 93       	push	r29
     f44:	cf 93       	push	r28
     f46:	00 d0       	rcall	.+0      	; 0xf48 <LED_toggle+0x6>
     f48:	00 d0       	rcall	.+0      	; 0xf4a <LED_toggle+0x8>
     f4a:	cd b7       	in	r28, 0x3d	; 61
     f4c:	de b7       	in	r29, 0x3e	; 62
     f4e:	9c 83       	std	Y+4, r25	; 0x04
     f50:	8b 83       	std	Y+3, r24	; 0x03
	Std_ReturnType ret = E_NOT_OK;
     f52:	19 82       	std	Y+1, r1	; 0x01
	if(NULL == led)
     f54:	8b 81       	ldd	r24, Y+3	; 0x03
     f56:	9c 81       	ldd	r25, Y+4	; 0x04
     f58:	00 97       	sbiw	r24, 0x00	; 0
     f5a:	11 f4       	brne	.+4      	; 0xf60 <LED_toggle+0x1e>
	{
		ret = E_NOT_OK;
     f5c:	19 82       	std	Y+1, r1	; 0x01
     f5e:	35 c0       	rjmp	.+106    	; 0xfca <LED_toggle+0x88>
		{
				.port = led->port_name,
				.pin = led->pin,
				.direction = GPIO_DIRECTION_OUTPUT,
				.logic = led->led_status
		};
     f60:	eb 81       	ldd	r30, Y+3	; 0x03
     f62:	fc 81       	ldd	r31, Y+4	; 0x04
     f64:	80 81       	ld	r24, Z
     f66:	28 2f       	mov	r18, r24
     f68:	27 70       	andi	r18, 0x07	; 7
     f6a:	eb 81       	ldd	r30, Y+3	; 0x03
     f6c:	fc 81       	ldd	r31, Y+4	; 0x04
     f6e:	80 81       	ld	r24, Z
     f70:	98 2f       	mov	r25, r24
     f72:	96 95       	lsr	r25
     f74:	96 95       	lsr	r25
     f76:	96 95       	lsr	r25
     f78:	97 70       	andi	r25, 0x07	; 7
     f7a:	eb 81       	ldd	r30, Y+3	; 0x03
     f7c:	fc 81       	ldd	r31, Y+4	; 0x04
     f7e:	80 81       	ld	r24, Z
     f80:	38 2f       	mov	r19, r24
     f82:	32 95       	swap	r19
     f84:	36 95       	lsr	r19
     f86:	36 95       	lsr	r19
     f88:	33 70       	andi	r19, 0x03	; 3
     f8a:	31 70       	andi	r19, 0x01	; 1
     f8c:	27 70       	andi	r18, 0x07	; 7
     f8e:	8a 81       	ldd	r24, Y+2	; 0x02
     f90:	88 7f       	andi	r24, 0xF8	; 248
     f92:	82 2b       	or	r24, r18
     f94:	8a 83       	std	Y+2, r24	; 0x02
     f96:	89 2f       	mov	r24, r25
     f98:	87 70       	andi	r24, 0x07	; 7
     f9a:	98 2f       	mov	r25, r24
     f9c:	99 0f       	add	r25, r25
     f9e:	99 0f       	add	r25, r25
     fa0:	99 0f       	add	r25, r25
     fa2:	8a 81       	ldd	r24, Y+2	; 0x02
     fa4:	87 7c       	andi	r24, 0xC7	; 199
     fa6:	89 2b       	or	r24, r25
     fa8:	8a 83       	std	Y+2, r24	; 0x02
     faa:	8a 81       	ldd	r24, Y+2	; 0x02
     fac:	80 64       	ori	r24, 0x40	; 64
     fae:	8a 83       	std	Y+2, r24	; 0x02
     fb0:	93 2f       	mov	r25, r19
     fb2:	97 95       	ror	r25
     fb4:	99 27       	eor	r25, r25
     fb6:	97 95       	ror	r25
     fb8:	8a 81       	ldd	r24, Y+2	; 0x02
     fba:	8f 77       	andi	r24, 0x7F	; 127
     fbc:	89 2b       	or	r24, r25
     fbe:	8a 83       	std	Y+2, r24	; 0x02
		ret = GPIO_pin_toggle_logic(&LED_pin_obj);
     fc0:	ce 01       	movw	r24, r28
     fc2:	02 96       	adiw	r24, 0x02	; 2
     fc4:	0e 94 0b 05 	call	0xa16	; 0xa16 <GPIO_pin_toggle_logic>
     fc8:	89 83       	std	Y+1, r24	; 0x01
	}
	return ret;
     fca:	89 81       	ldd	r24, Y+1	; 0x01
}
     fcc:	0f 90       	pop	r0
     fce:	0f 90       	pop	r0
     fd0:	0f 90       	pop	r0
     fd2:	0f 90       	pop	r0
     fd4:	cf 91       	pop	r28
     fd6:	df 91       	pop	r29
     fd8:	08 95       	ret

00000fda <appmain>:
Uchar8_t pressCounterFlag = ZERO_PRESS;



void appmain(void)
{
     fda:	df 93       	push	r29
     fdc:	cf 93       	push	r28
     fde:	cd b7       	in	r28, 0x3d	; 61
     fe0:	de b7       	in	r29, 0x3e	; 62


	LED_initialize(&led0);
     fe2:	88 e7       	ldi	r24, 0x78	; 120
     fe4:	90 e0       	ldi	r25, 0x00	; 0
     fe6:	0e 94 bb 06 	call	0xd76	; 0xd76 <LED_initialize>
	LED_initialize(&led1);
     fea:	89 e7       	ldi	r24, 0x79	; 121
     fec:	90 e0       	ldi	r25, 0x00	; 0
     fee:	0e 94 bb 06 	call	0xd76	; 0xd76 <LED_initialize>
	LED_initialize(&led2);
     ff2:	8a e7       	ldi	r24, 0x7A	; 122
     ff4:	90 e0       	ldi	r25, 0x00	; 0
     ff6:	0e 94 bb 06 	call	0xd76	; 0xd76 <LED_initialize>
	LED_initialize(&led3);
     ffa:	8b e7       	ldi	r24, 0x7B	; 123
     ffc:	90 e0       	ldi	r25, 0x00	; 0
     ffe:	0e 94 bb 06 	call	0xd76	; 0xd76 <LED_initialize>
	EXT_vINTERRUPT_Init(&int0);
    1002:	8f e7       	ldi	r24, 0x7F	; 127
    1004:	90 e0       	ldi	r25, 0x00	; 0
    1006:	0e 94 57 00 	call	0xae	; 0xae <EXT_vINTERRUPT_Init>
	EXT_INTERRUPT_SetInterruptHandler(&int0);
    100a:	8f e7       	ldi	r24, 0x7F	; 127
    100c:	90 e0       	ldi	r25, 0x00	; 0
    100e:	0e 94 5a 02 	call	0x4b4	; 0x4b4 <EXT_INTERRUPT_SetInterruptHandler>
	PUSH_BTN_intialize(&btn0);
    1012:	8c e7       	ldi	r24, 0x7C	; 124
    1014:	90 e0       	ldi	r25, 0x00	; 0
    1016:	0e 94 53 06 	call	0xca6	; 0xca6 <PUSH_BTN_intialize>

	while(1)
	{

		if(pressCounterFlag == ONE_PRESS)
    101a:	80 91 8a 00 	lds	r24, 0x008A
    101e:	81 30       	cpi	r24, 0x01	; 1
    1020:	89 f4       	brne	.+34     	; 0x1044 <appmain+0x6a>
		{
			LED_turn_on(&led0);
    1022:	88 e7       	ldi	r24, 0x78	; 120
    1024:	90 e0       	ldi	r25, 0x00	; 0
    1026:	0e 94 07 07 	call	0xe0e	; 0xe0e <LED_turn_on>
			LED_turn_off(&led1);
    102a:	89 e7       	ldi	r24, 0x79	; 121
    102c:	90 e0       	ldi	r25, 0x00	; 0
    102e:	0e 94 54 07 	call	0xea8	; 0xea8 <LED_turn_off>
			LED_turn_off(&led2);
    1032:	8a e7       	ldi	r24, 0x7A	; 122
    1034:	90 e0       	ldi	r25, 0x00	; 0
    1036:	0e 94 54 07 	call	0xea8	; 0xea8 <LED_turn_off>
			LED_turn_off(&led3);
    103a:	8b e7       	ldi	r24, 0x7B	; 123
    103c:	90 e0       	ldi	r25, 0x00	; 0
    103e:	0e 94 54 07 	call	0xea8	; 0xea8 <LED_turn_off>
    1042:	eb cf       	rjmp	.-42     	; 0x101a <appmain+0x40>
		}
		else if(pressCounterFlag == TWO_PRESS)
    1044:	80 91 8a 00 	lds	r24, 0x008A
    1048:	82 30       	cpi	r24, 0x02	; 2
    104a:	89 f4       	brne	.+34     	; 0x106e <appmain+0x94>
		{
			LED_turn_on(&led0);
    104c:	88 e7       	ldi	r24, 0x78	; 120
    104e:	90 e0       	ldi	r25, 0x00	; 0
    1050:	0e 94 07 07 	call	0xe0e	; 0xe0e <LED_turn_on>
			LED_turn_on(&led1);
    1054:	89 e7       	ldi	r24, 0x79	; 121
    1056:	90 e0       	ldi	r25, 0x00	; 0
    1058:	0e 94 07 07 	call	0xe0e	; 0xe0e <LED_turn_on>
			LED_turn_off(&led2);
    105c:	8a e7       	ldi	r24, 0x7A	; 122
    105e:	90 e0       	ldi	r25, 0x00	; 0
    1060:	0e 94 54 07 	call	0xea8	; 0xea8 <LED_turn_off>
			LED_turn_off(&led3);
    1064:	8b e7       	ldi	r24, 0x7B	; 123
    1066:	90 e0       	ldi	r25, 0x00	; 0
    1068:	0e 94 54 07 	call	0xea8	; 0xea8 <LED_turn_off>
    106c:	d6 cf       	rjmp	.-84     	; 0x101a <appmain+0x40>
		}
		else if(pressCounterFlag == THREE_PRESS)
    106e:	80 91 8a 00 	lds	r24, 0x008A
    1072:	83 30       	cpi	r24, 0x03	; 3
    1074:	89 f4       	brne	.+34     	; 0x1098 <appmain+0xbe>
		{
			LED_turn_on(&led0);
    1076:	88 e7       	ldi	r24, 0x78	; 120
    1078:	90 e0       	ldi	r25, 0x00	; 0
    107a:	0e 94 07 07 	call	0xe0e	; 0xe0e <LED_turn_on>
			LED_turn_on(&led1);
    107e:	89 e7       	ldi	r24, 0x79	; 121
    1080:	90 e0       	ldi	r25, 0x00	; 0
    1082:	0e 94 07 07 	call	0xe0e	; 0xe0e <LED_turn_on>
			LED_turn_on(&led2);
    1086:	8a e7       	ldi	r24, 0x7A	; 122
    1088:	90 e0       	ldi	r25, 0x00	; 0
    108a:	0e 94 07 07 	call	0xe0e	; 0xe0e <LED_turn_on>
			LED_turn_off(&led3);
    108e:	8b e7       	ldi	r24, 0x7B	; 123
    1090:	90 e0       	ldi	r25, 0x00	; 0
    1092:	0e 94 54 07 	call	0xea8	; 0xea8 <LED_turn_off>
    1096:	c1 cf       	rjmp	.-126    	; 0x101a <appmain+0x40>
		}
		else if(pressCounterFlag == FOUR_PRESS)
    1098:	80 91 8a 00 	lds	r24, 0x008A
    109c:	84 30       	cpi	r24, 0x04	; 4
    109e:	89 f4       	brne	.+34     	; 0x10c2 <appmain+0xe8>
		{

			LED_turn_on(&led0);
    10a0:	88 e7       	ldi	r24, 0x78	; 120
    10a2:	90 e0       	ldi	r25, 0x00	; 0
    10a4:	0e 94 07 07 	call	0xe0e	; 0xe0e <LED_turn_on>
			LED_turn_on(&led1);
    10a8:	89 e7       	ldi	r24, 0x79	; 121
    10aa:	90 e0       	ldi	r25, 0x00	; 0
    10ac:	0e 94 07 07 	call	0xe0e	; 0xe0e <LED_turn_on>
			LED_turn_on(&led2);
    10b0:	8a e7       	ldi	r24, 0x7A	; 122
    10b2:	90 e0       	ldi	r25, 0x00	; 0
    10b4:	0e 94 07 07 	call	0xe0e	; 0xe0e <LED_turn_on>
			LED_turn_on(&led3);
    10b8:	8b e7       	ldi	r24, 0x7B	; 123
    10ba:	90 e0       	ldi	r25, 0x00	; 0
    10bc:	0e 94 07 07 	call	0xe0e	; 0xe0e <LED_turn_on>
    10c0:	ac cf       	rjmp	.-168    	; 0x101a <appmain+0x40>
		}
		else if(pressCounterFlag == FIVE_PRESS)
    10c2:	80 91 8a 00 	lds	r24, 0x008A
    10c6:	85 30       	cpi	r24, 0x05	; 5
    10c8:	89 f4       	brne	.+34     	; 0x10ec <appmain+0x112>
		{

			LED_turn_off(&led0);
    10ca:	88 e7       	ldi	r24, 0x78	; 120
    10cc:	90 e0       	ldi	r25, 0x00	; 0
    10ce:	0e 94 54 07 	call	0xea8	; 0xea8 <LED_turn_off>
			LED_turn_on(&led1);
    10d2:	89 e7       	ldi	r24, 0x79	; 121
    10d4:	90 e0       	ldi	r25, 0x00	; 0
    10d6:	0e 94 07 07 	call	0xe0e	; 0xe0e <LED_turn_on>
			LED_turn_on(&led2);
    10da:	8a e7       	ldi	r24, 0x7A	; 122
    10dc:	90 e0       	ldi	r25, 0x00	; 0
    10de:	0e 94 07 07 	call	0xe0e	; 0xe0e <LED_turn_on>
			LED_turn_on(&led3);
    10e2:	8b e7       	ldi	r24, 0x7B	; 123
    10e4:	90 e0       	ldi	r25, 0x00	; 0
    10e6:	0e 94 07 07 	call	0xe0e	; 0xe0e <LED_turn_on>
    10ea:	97 cf       	rjmp	.-210    	; 0x101a <appmain+0x40>
		}
		else if(pressCounterFlag == SIX_PRESS)
    10ec:	80 91 8a 00 	lds	r24, 0x008A
    10f0:	86 30       	cpi	r24, 0x06	; 6
    10f2:	89 f4       	brne	.+34     	; 0x1116 <appmain+0x13c>
		{
			LED_turn_off(&led0);
    10f4:	88 e7       	ldi	r24, 0x78	; 120
    10f6:	90 e0       	ldi	r25, 0x00	; 0
    10f8:	0e 94 54 07 	call	0xea8	; 0xea8 <LED_turn_off>
			LED_turn_off(&led1);
    10fc:	89 e7       	ldi	r24, 0x79	; 121
    10fe:	90 e0       	ldi	r25, 0x00	; 0
    1100:	0e 94 54 07 	call	0xea8	; 0xea8 <LED_turn_off>
			LED_turn_on(&led2);
    1104:	8a e7       	ldi	r24, 0x7A	; 122
    1106:	90 e0       	ldi	r25, 0x00	; 0
    1108:	0e 94 07 07 	call	0xe0e	; 0xe0e <LED_turn_on>
			LED_turn_on(&led3);
    110c:	8b e7       	ldi	r24, 0x7B	; 123
    110e:	90 e0       	ldi	r25, 0x00	; 0
    1110:	0e 94 07 07 	call	0xe0e	; 0xe0e <LED_turn_on>
    1114:	82 cf       	rjmp	.-252    	; 0x101a <appmain+0x40>
		}
		else if(pressCounterFlag == SEVEN_PRESS)
    1116:	80 91 8a 00 	lds	r24, 0x008A
    111a:	87 30       	cpi	r24, 0x07	; 7
    111c:	89 f4       	brne	.+34     	; 0x1140 <appmain+0x166>
		{
			LED_turn_off(&led0);
    111e:	88 e7       	ldi	r24, 0x78	; 120
    1120:	90 e0       	ldi	r25, 0x00	; 0
    1122:	0e 94 54 07 	call	0xea8	; 0xea8 <LED_turn_off>
			LED_turn_off(&led1);
    1126:	89 e7       	ldi	r24, 0x79	; 121
    1128:	90 e0       	ldi	r25, 0x00	; 0
    112a:	0e 94 54 07 	call	0xea8	; 0xea8 <LED_turn_off>
			LED_turn_off(&led2);
    112e:	8a e7       	ldi	r24, 0x7A	; 122
    1130:	90 e0       	ldi	r25, 0x00	; 0
    1132:	0e 94 54 07 	call	0xea8	; 0xea8 <LED_turn_off>
			LED_turn_on(&led3);
    1136:	8b e7       	ldi	r24, 0x7B	; 123
    1138:	90 e0       	ldi	r25, 0x00	; 0
    113a:	0e 94 07 07 	call	0xe0e	; 0xe0e <LED_turn_on>
    113e:	6d cf       	rjmp	.-294    	; 0x101a <appmain+0x40>
		}
		else if(pressCounterFlag == EIGHT_PRESS)
    1140:	80 91 8a 00 	lds	r24, 0x008A
    1144:	88 30       	cpi	r24, 0x08	; 8
    1146:	99 f4       	brne	.+38     	; 0x116e <appmain+0x194>
		{
			LED_turn_off(&led0);
    1148:	88 e7       	ldi	r24, 0x78	; 120
    114a:	90 e0       	ldi	r25, 0x00	; 0
    114c:	0e 94 54 07 	call	0xea8	; 0xea8 <LED_turn_off>
			LED_turn_off(&led1);
    1150:	89 e7       	ldi	r24, 0x79	; 121
    1152:	90 e0       	ldi	r25, 0x00	; 0
    1154:	0e 94 54 07 	call	0xea8	; 0xea8 <LED_turn_off>
			LED_turn_off(&led2);
    1158:	8a e7       	ldi	r24, 0x7A	; 122
    115a:	90 e0       	ldi	r25, 0x00	; 0
    115c:	0e 94 54 07 	call	0xea8	; 0xea8 <LED_turn_off>
			LED_turn_off(&led3);
    1160:	8b e7       	ldi	r24, 0x7B	; 123
    1162:	90 e0       	ldi	r25, 0x00	; 0
    1164:	0e 94 54 07 	call	0xea8	; 0xea8 <LED_turn_off>
			pressCounterFlag = ZERO_PRESS;
    1168:	10 92 8a 00 	sts	0x008A, r1
    116c:	56 cf       	rjmp	.-340    	; 0x101a <appmain+0x40>
		}
		else
		{
			LED_turn_off(&led0);
    116e:	88 e7       	ldi	r24, 0x78	; 120
    1170:	90 e0       	ldi	r25, 0x00	; 0
    1172:	0e 94 54 07 	call	0xea8	; 0xea8 <LED_turn_off>
			LED_turn_off(&led1);
    1176:	89 e7       	ldi	r24, 0x79	; 121
    1178:	90 e0       	ldi	r25, 0x00	; 0
    117a:	0e 94 54 07 	call	0xea8	; 0xea8 <LED_turn_off>
			LED_turn_off(&led2);
    117e:	8a e7       	ldi	r24, 0x7A	; 122
    1180:	90 e0       	ldi	r25, 0x00	; 0
    1182:	0e 94 54 07 	call	0xea8	; 0xea8 <LED_turn_off>
			LED_turn_off(&led3);
    1186:	8b e7       	ldi	r24, 0x7B	; 123
    1188:	90 e0       	ldi	r25, 0x00	; 0
    118a:	0e 94 54 07 	call	0xea8	; 0xea8 <LED_turn_off>
    118e:	45 cf       	rjmp	.-374    	; 0x101a <appmain+0x40>

00001190 <con>:
		}
	}
}

void con(void)
{
    1190:	df 93       	push	r29
    1192:	cf 93       	push	r28
    1194:	cd b7       	in	r28, 0x3d	; 61
    1196:	de b7       	in	r29, 0x3e	; 62
	pressCounterFlag++;
    1198:	80 91 8a 00 	lds	r24, 0x008A
    119c:	8f 5f       	subi	r24, 0xFF	; 255
    119e:	80 93 8a 00 	sts	0x008A, r24
}
    11a2:	cf 91       	pop	r28
    11a4:	df 91       	pop	r29
    11a6:	08 95       	ret

000011a8 <main>:
 */

#include"APP.h"

void main(void)
{
    11a8:	df 93       	push	r29
    11aa:	cf 93       	push	r28
    11ac:	cd b7       	in	r28, 0x3d	; 61
    11ae:	de b7       	in	r29, 0x3e	; 62
	appmain();
    11b0:	0e 94 ed 07 	call	0xfda	; 0xfda <appmain>
}
    11b4:	cf 91       	pop	r28
    11b6:	df 91       	pop	r29
    11b8:	08 95       	ret

000011ba <_exit>:
    11ba:	f8 94       	cli

000011bc <__stop_program>:
    11bc:	ff cf       	rjmp	.-2      	; 0x11bc <__stop_program>
