
led_sequance_v3.0.elf:     file format elf32-avr

Sections:
Idx Name          Size      VMA       LMA       File off  Algn
  0 .data         0000002e  00800100  00000fe8  0000107c  2**0
                  CONTENTS, ALLOC, LOAD, DATA
  1 .text         00000fe8  00000000  00000000  00000094  2**1
                  CONTENTS, ALLOC, LOAD, READONLY, CODE
  2 .bss          00000018  0080012e  0080012e  000010aa  2**0
                  ALLOC
  3 .comment      00000030  00000000  00000000  000010aa  2**0
                  CONTENTS, READONLY
  4 .note.gnu.avr.deviceinfo 00000040  00000000  00000000  000010dc  2**2
                  CONTENTS, READONLY
  5 .debug_aranges 00000220  00000000  00000000  0000111c  2**0
                  CONTENTS, READONLY, DEBUGGING
  6 .debug_info   00002dbf  00000000  00000000  0000133c  2**0
                  CONTENTS, READONLY, DEBUGGING
  7 .debug_abbrev 00000f59  00000000  00000000  000040fb  2**0
                  CONTENTS, READONLY, DEBUGGING
  8 .debug_line   000018e9  00000000  00000000  00005054  2**0
                  CONTENTS, READONLY, DEBUGGING
  9 .debug_frame  00000584  00000000  00000000  00006940  2**2
                  CONTENTS, READONLY, DEBUGGING
 10 .debug_str    000015c4  00000000  00000000  00006ec4  2**0
                  CONTENTS, READONLY, DEBUGGING
 11 .debug_loc    00001cb8  00000000  00000000  00008488  2**0
                  CONTENTS, READONLY, DEBUGGING
 12 .debug_ranges 000001a0  00000000  00000000  0000a140  2**0
                  CONTENTS, READONLY, DEBUGGING

Disassembly of section .text:

00000000 <__vectors>:
   0:	0c 94 52 00 	jmp	0xa4	; 0xa4 <__ctors_end>
   4:	0c 94 6f 05 	jmp	0xade	; 0xade <__vector_1>
   8:	0c 94 96 05 	jmp	0xb2c	; 0xb2c <__vector_2>
   c:	0c 94 bd 05 	jmp	0xb7a	; 0xb7a <__vector_3>
  10:	0c 94 6f 00 	jmp	0xde	; 0xde <__bad_interrupt>
  14:	0c 94 6f 00 	jmp	0xde	; 0xde <__bad_interrupt>
  18:	0c 94 6f 00 	jmp	0xde	; 0xde <__bad_interrupt>
  1c:	0c 94 6f 00 	jmp	0xde	; 0xde <__bad_interrupt>
  20:	0c 94 6f 00 	jmp	0xde	; 0xde <__bad_interrupt>
  24:	0c 94 6f 00 	jmp	0xde	; 0xde <__bad_interrupt>
  28:	0c 94 c5 07 	jmp	0xf8a	; 0xf8a <__vector_10>
  2c:	0c 94 67 07 	jmp	0xece	; 0xece <__vector_11>
  30:	0c 94 6f 00 	jmp	0xde	; 0xde <__bad_interrupt>
  34:	0c 94 6f 00 	jmp	0xde	; 0xde <__bad_interrupt>
  38:	0c 94 6f 00 	jmp	0xde	; 0xde <__bad_interrupt>
  3c:	0c 94 6f 00 	jmp	0xde	; 0xde <__bad_interrupt>
  40:	0c 94 6f 00 	jmp	0xde	; 0xde <__bad_interrupt>
  44:	0c 94 6f 00 	jmp	0xde	; 0xde <__bad_interrupt>
  48:	0c 94 6f 00 	jmp	0xde	; 0xde <__bad_interrupt>
  4c:	0c 94 6f 00 	jmp	0xde	; 0xde <__bad_interrupt>
  50:	0c 94 6f 00 	jmp	0xde	; 0xde <__bad_interrupt>
  54:	0c 94 6f 00 	jmp	0xde	; 0xde <__bad_interrupt>
  58:	0c 94 6f 00 	jmp	0xde	; 0xde <__bad_interrupt>
  5c:	0c 94 6f 00 	jmp	0xde	; 0xde <__bad_interrupt>
  60:	0c 94 6f 00 	jmp	0xde	; 0xde <__bad_interrupt>
  64:	0c 94 6f 00 	jmp	0xde	; 0xde <__bad_interrupt>
  68:	0c 94 6f 00 	jmp	0xde	; 0xde <__bad_interrupt>
  6c:	0c 94 6f 00 	jmp	0xde	; 0xde <__bad_interrupt>
  70:	0c 94 6f 00 	jmp	0xde	; 0xde <__bad_interrupt>
  74:	a3 00       	.word	0x00a3	; ????
  76:	de 00       	.word	0x00de	; ????
  78:	21 01       	movw	r4, r2
  7a:	6c 01       	movw	r12, r24
  7c:	bf 01       	movw	r22, r30
  7e:	0e 02       	muls	r16, r30
  80:	51 02       	muls	r21, r17
  82:	8b 02       	muls	r24, r27
  84:	31 06       	cpc	r3, r17
  86:	36 06       	cpc	r3, r22
  88:	3c 06       	cpc	r3, r28
  8a:	42 06       	cpc	r4, r18
  8c:	47 06       	cpc	r4, r23
  8e:	4d 06       	cpc	r4, r29
  90:	52 06       	cpc	r5, r18
  92:	58 06       	cpc	r5, r24
  94:	c0 06       	cpc	r12, r16
  96:	c5 06       	cpc	r12, r21
  98:	cb 06       	cpc	r12, r27
  9a:	d2 06       	cpc	r13, r18
  9c:	d8 06       	cpc	r13, r24
  9e:	de 06       	cpc	r13, r30
  a0:	e5 06       	cpc	r14, r21
  a2:	eb 06       	cpc	r14, r27

000000a4 <__ctors_end>:
  a4:	11 24       	eor	r1, r1
  a6:	1f be       	out	0x3f, r1	; 63
  a8:	cf ef       	ldi	r28, 0xFF	; 255
  aa:	d4 e0       	ldi	r29, 0x04	; 4
  ac:	de bf       	out	0x3e, r29	; 62
  ae:	cd bf       	out	0x3d, r28	; 61

000000b0 <__do_copy_data>:
  b0:	11 e0       	ldi	r17, 0x01	; 1
  b2:	a0 e0       	ldi	r26, 0x00	; 0
  b4:	b1 e0       	ldi	r27, 0x01	; 1
  b6:	e8 ee       	ldi	r30, 0xE8	; 232
  b8:	ff e0       	ldi	r31, 0x0F	; 15
  ba:	02 c0       	rjmp	.+4      	; 0xc0 <__do_copy_data+0x10>
  bc:	05 90       	lpm	r0, Z+
  be:	0d 92       	st	X+, r0
  c0:	ae 32       	cpi	r26, 0x2E	; 46
  c2:	b1 07       	cpc	r27, r17
  c4:	d9 f7       	brne	.-10     	; 0xbc <__do_copy_data+0xc>

000000c6 <__do_clear_bss>:
  c6:	21 e0       	ldi	r18, 0x01	; 1
  c8:	ae e2       	ldi	r26, 0x2E	; 46
  ca:	b1 e0       	ldi	r27, 0x01	; 1
  cc:	01 c0       	rjmp	.+2      	; 0xd0 <.do_clear_bss_start>

000000ce <.do_clear_bss_loop>:
  ce:	1d 92       	st	X+, r1

000000d0 <.do_clear_bss_start>:
  d0:	a6 34       	cpi	r26, 0x46	; 70
  d2:	b2 07       	cpc	r27, r18
  d4:	e1 f7       	brne	.-8      	; 0xce <.do_clear_bss_loop>
  d6:	0e 94 e0 03 	call	0x7c0	; 0x7c0 <main>
  da:	0c 94 f2 07 	jmp	0xfe4	; 0xfe4 <_exit>

000000de <__bad_interrupt>:
  de:	0c 94 00 00 	jmp	0	; 0x0 <__vectors>

000000e2 <timer0_callback>:
};


void timer0_callback(void)
{
	enu_timer_state_flag = TIMER_FLAG_IS_FIRE;
  e2:	10 92 15 01 	sts	0x0115, r1	; 0x800115 <enu_timer_state_flag>
  e6:	08 95       	ret

000000e8 <INT2_ISR_HANDELER>:
}


void INT2_ISR_HANDELER(void)
{
	blankCounter++;
  e8:	80 91 14 01 	lds	r24, 0x0114	; 0x800114 <blankCounter>
  ec:	8f 5f       	subi	r24, 0xFF	; 255
  ee:	80 93 14 01 	sts	0x0114, r24	; 0x800114 <blankCounter>
	if(blankCounter == 6)
  f2:	86 30       	cpi	r24, 0x06	; 6
  f4:	19 f4       	brne	.+6      	; 0xfc <INT2_ISR_HANDELER+0x14>
	blankCounter = 1;
  f6:	81 e0       	ldi	r24, 0x01	; 1
  f8:	80 93 14 01 	sts	0x0114, r24	; 0x800114 <blankCounter>
  fc:	08 95       	ret

000000fe <seq>:



void seq(void)
{
	seqCounter++;
  fe:	80 91 2e 01 	lds	r24, 0x012E	; 0x80012e <__data_end>
 102:	8f 5f       	subi	r24, 0xFF	; 255
 104:	80 93 2e 01 	sts	0x012E, r24	; 0x80012e <__data_end>
	if(seqCounter == 9)
 108:	89 30       	cpi	r24, 0x09	; 9
 10a:	11 f4       	brne	.+4      	; 0x110 <seq+0x12>
	seqCounter = 0;
 10c:	10 92 2e 01 	sts	0x012E, r1	; 0x80012e <__data_end>
 110:	08 95       	ret

00000112 <BlinkModes>:
}



void BlinkModes(Uint32_t from,Uint32_t to)
{
 112:	8f 92       	push	r8
 114:	9f 92       	push	r9
 116:	af 92       	push	r10
 118:	bf 92       	push	r11
 11a:	cf 92       	push	r12
 11c:	df 92       	push	r13
 11e:	ef 92       	push	r14
 120:	ff 92       	push	r15
	switch(seqCounter)
 122:	e0 91 2e 01 	lds	r30, 0x012E	; 0x80012e <__data_end>
 126:	ce 2e       	mov	r12, r30
 128:	d1 2c       	mov	r13, r1
 12a:	f6 01       	movw	r30, r12
 12c:	31 97       	sbiw	r30, 0x01	; 1
 12e:	e8 30       	cpi	r30, 0x08	; 8
 130:	f1 05       	cpc	r31, r1
 132:	08 f0       	brcs	.+2      	; 0x136 <BlinkModes+0x24>
 134:	00 c2       	rjmp	.+1024   	; 0x536 <__stack+0x37>
 136:	49 01       	movw	r8, r18
 138:	5a 01       	movw	r10, r20
 13a:	6b 01       	movw	r12, r22
 13c:	7c 01       	movw	r14, r24
 13e:	e6 5c       	subi	r30, 0xC6	; 198
 140:	ff 4f       	sbci	r31, 0xFF	; 255
 142:	0c 94 ec 07 	jmp	0xfd8	; 0xfd8 <__tablejump2__>
	{
		case ONE_PRESS:
		{
			if((enu_blank_states == BLANK_IN_TURN_ON) && (enu_timer_state_flag == TIMER_FLAG_REST))
 146:	80 91 2f 01 	lds	r24, 0x012F	; 0x80012f <enu_blank_states>
 14a:	81 11       	cpse	r24, r1
 14c:	14 c0       	rjmp	.+40     	; 0x176 <BlinkModes+0x64>
 14e:	90 91 15 01 	lds	r25, 0x0115	; 0x800115 <enu_timer_state_flag>
 152:	91 30       	cpi	r25, 0x01	; 1
 154:	81 f4       	brne	.+32     	; 0x176 <BlinkModes+0x64>
			{
				enu_blank_states = BLANK_IN_TURN_OFF;
 156:	81 e0       	ldi	r24, 0x01	; 1
 158:	80 93 2f 01 	sts	0x012F, r24	; 0x80012f <enu_blank_states>
				LED_turn_on(&led0);
 15c:	82 e1       	ldi	r24, 0x12	; 18
 15e:	91 e0       	ldi	r25, 0x01	; 1
 160:	0e 94 4a 03 	call	0x694	; 0x694 <LED_turn_on>
				TIMER0_delay_ms(from);
 164:	c7 01       	movw	r24, r14
 166:	b6 01       	movw	r22, r12
 168:	0e 94 fd 06 	call	0xdfa	; 0xdfa <TIMER0_delay_ms>
				TIMER0_start(&timer0);
 16c:	80 e0       	ldi	r24, 0x00	; 0
 16e:	91 e0       	ldi	r25, 0x01	; 1
 170:	0e 94 b0 06 	call	0xd60	; 0xd60 <TIMER0_start>
 174:	e0 c1       	rjmp	.+960    	; 0x536 <__stack+0x37>
			}
			else if((enu_timer_state_flag == TIMER_FLAG_IS_FIRE) && (enu_blank_states == BLANK_IN_TURN_OFF))
 176:	90 91 15 01 	lds	r25, 0x0115	; 0x800115 <enu_timer_state_flag>
 17a:	91 11       	cpse	r25, r1
 17c:	14 c0       	rjmp	.+40     	; 0x1a6 <BlinkModes+0x94>
 17e:	81 30       	cpi	r24, 0x01	; 1
 180:	91 f4       	brne	.+36     	; 0x1a6 <BlinkModes+0x94>
			{
				enu_timer_state_flag = TIMER_FLAG_REST;
 182:	80 93 15 01 	sts	0x0115, r24	; 0x800115 <enu_timer_state_flag>
				enu_blank_states = BLANK_IN_RESET;
 186:	82 e0       	ldi	r24, 0x02	; 2
 188:	80 93 2f 01 	sts	0x012F, r24	; 0x80012f <enu_blank_states>
				LED_turn_off(&led0);
 18c:	82 e1       	ldi	r24, 0x12	; 18
 18e:	91 e0       	ldi	r25, 0x01	; 1
 190:	0e 94 74 03 	call	0x6e8	; 0x6e8 <LED_turn_off>
				TIMER0_delay_ms(to);
 194:	c5 01       	movw	r24, r10
 196:	b4 01       	movw	r22, r8
 198:	0e 94 fd 06 	call	0xdfa	; 0xdfa <TIMER0_delay_ms>
				TIMER0_start(&timer0);
 19c:	80 e0       	ldi	r24, 0x00	; 0
 19e:	91 e0       	ldi	r25, 0x01	; 1
 1a0:	0e 94 b0 06 	call	0xd60	; 0xd60 <TIMER0_start>
 1a4:	c8 c1       	rjmp	.+912    	; 0x536 <__stack+0x37>
			}
			else if((enu_timer_state_flag == TIMER_FLAG_IS_FIRE) && (enu_blank_states == BLANK_IN_RESET))
 1a6:	91 11       	cpse	r25, r1
 1a8:	c6 c1       	rjmp	.+908    	; 0x536 <__stack+0x37>
 1aa:	82 30       	cpi	r24, 0x02	; 2
 1ac:	09 f0       	breq	.+2      	; 0x1b0 <BlinkModes+0x9e>
 1ae:	c3 c1       	rjmp	.+902    	; 0x536 <__stack+0x37>
			{
				enu_timer_state_flag = TIMER_FLAG_REST;
 1b0:	81 e0       	ldi	r24, 0x01	; 1
 1b2:	80 93 15 01 	sts	0x0115, r24	; 0x800115 <enu_timer_state_flag>
				enu_blank_states = BLANK_IN_TURN_ON;
 1b6:	10 92 2f 01 	sts	0x012F, r1	; 0x80012f <enu_blank_states>
 1ba:	bd c1       	rjmp	.+890    	; 0x536 <__stack+0x37>
			}
			break;
		}
		case TWO_PRESS:
		{
			if((enu_blank_states == BLANK_IN_TURN_ON) && (enu_timer_state_flag == TIMER_FLAG_REST))
 1bc:	80 91 2f 01 	lds	r24, 0x012F	; 0x80012f <enu_blank_states>
 1c0:	81 11       	cpse	r24, r1
 1c2:	18 c0       	rjmp	.+48     	; 0x1f4 <BlinkModes+0xe2>
 1c4:	90 91 15 01 	lds	r25, 0x0115	; 0x800115 <enu_timer_state_flag>
 1c8:	91 30       	cpi	r25, 0x01	; 1
 1ca:	a1 f4       	brne	.+40     	; 0x1f4 <BlinkModes+0xe2>
			{
				enu_blank_states = BLANK_IN_TURN_OFF;
 1cc:	81 e0       	ldi	r24, 0x01	; 1
 1ce:	80 93 2f 01 	sts	0x012F, r24	; 0x80012f <enu_blank_states>
				LED_turn_on(&led0);
 1d2:	82 e1       	ldi	r24, 0x12	; 18
 1d4:	91 e0       	ldi	r25, 0x01	; 1
 1d6:	0e 94 4a 03 	call	0x694	; 0x694 <LED_turn_on>
				LED_turn_on(&led1);
 1da:	81 e1       	ldi	r24, 0x11	; 17
 1dc:	91 e0       	ldi	r25, 0x01	; 1
 1de:	0e 94 4a 03 	call	0x694	; 0x694 <LED_turn_on>
				TIMER0_start(&timer0);
 1e2:	80 e0       	ldi	r24, 0x00	; 0
 1e4:	91 e0       	ldi	r25, 0x01	; 1
 1e6:	0e 94 b0 06 	call	0xd60	; 0xd60 <TIMER0_start>
				TIMER0_delay_ms(from);
 1ea:	c7 01       	movw	r24, r14
 1ec:	b6 01       	movw	r22, r12
 1ee:	0e 94 fd 06 	call	0xdfa	; 0xdfa <TIMER0_delay_ms>
 1f2:	a1 c1       	rjmp	.+834    	; 0x536 <__stack+0x37>
			}
			else if((enu_timer_state_flag == TIMER_FLAG_IS_FIRE) && (enu_blank_states == BLANK_IN_TURN_OFF))
 1f4:	90 91 15 01 	lds	r25, 0x0115	; 0x800115 <enu_timer_state_flag>
 1f8:	91 11       	cpse	r25, r1
 1fa:	18 c0       	rjmp	.+48     	; 0x22c <BlinkModes+0x11a>
 1fc:	81 30       	cpi	r24, 0x01	; 1
 1fe:	b1 f4       	brne	.+44     	; 0x22c <BlinkModes+0x11a>
			{
				enu_timer_state_flag = TIMER_FLAG_REST;
 200:	80 93 15 01 	sts	0x0115, r24	; 0x800115 <enu_timer_state_flag>
				enu_blank_states = BLANK_IN_RESET;
 204:	82 e0       	ldi	r24, 0x02	; 2
 206:	80 93 2f 01 	sts	0x012F, r24	; 0x80012f <enu_blank_states>
				LED_turn_off(&led0);
 20a:	82 e1       	ldi	r24, 0x12	; 18
 20c:	91 e0       	ldi	r25, 0x01	; 1
 20e:	0e 94 74 03 	call	0x6e8	; 0x6e8 <LED_turn_off>
				LED_turn_off(&led1);
 212:	81 e1       	ldi	r24, 0x11	; 17
 214:	91 e0       	ldi	r25, 0x01	; 1
 216:	0e 94 74 03 	call	0x6e8	; 0x6e8 <LED_turn_off>
				TIMER0_start(&timer0);
 21a:	80 e0       	ldi	r24, 0x00	; 0
 21c:	91 e0       	ldi	r25, 0x01	; 1
 21e:	0e 94 b0 06 	call	0xd60	; 0xd60 <TIMER0_start>
				TIMER0_delay_ms(to);
 222:	c5 01       	movw	r24, r10
 224:	b4 01       	movw	r22, r8
 226:	0e 94 fd 06 	call	0xdfa	; 0xdfa <TIMER0_delay_ms>
 22a:	85 c1       	rjmp	.+778    	; 0x536 <__stack+0x37>
			}
			else if((enu_timer_state_flag == TIMER_FLAG_IS_FIRE) && (enu_blank_states == BLANK_IN_RESET))
 22c:	91 11       	cpse	r25, r1
 22e:	83 c1       	rjmp	.+774    	; 0x536 <__stack+0x37>
 230:	82 30       	cpi	r24, 0x02	; 2
 232:	09 f0       	breq	.+2      	; 0x236 <BlinkModes+0x124>
 234:	80 c1       	rjmp	.+768    	; 0x536 <__stack+0x37>
			{
				enu_timer_state_flag = TIMER_FLAG_REST;
 236:	81 e0       	ldi	r24, 0x01	; 1
 238:	80 93 15 01 	sts	0x0115, r24	; 0x800115 <enu_timer_state_flag>
				enu_blank_states = BLANK_IN_TURN_ON;
 23c:	10 92 2f 01 	sts	0x012F, r1	; 0x80012f <enu_blank_states>
 240:	7a c1       	rjmp	.+756    	; 0x536 <__stack+0x37>
			}
			break;
		}
		case THREE_PRESS:
		{
			if((enu_blank_states == BLANK_IN_TURN_ON) && (enu_timer_state_flag == TIMER_FLAG_REST))
 242:	80 91 2f 01 	lds	r24, 0x012F	; 0x80012f <enu_blank_states>
 246:	81 11       	cpse	r24, r1
 248:	1c c0       	rjmp	.+56     	; 0x282 <BlinkModes+0x170>
 24a:	90 91 15 01 	lds	r25, 0x0115	; 0x800115 <enu_timer_state_flag>
 24e:	91 30       	cpi	r25, 0x01	; 1
 250:	c1 f4       	brne	.+48     	; 0x282 <BlinkModes+0x170>
			{
				enu_blank_states = BLANK_IN_TURN_OFF;
 252:	81 e0       	ldi	r24, 0x01	; 1
 254:	80 93 2f 01 	sts	0x012F, r24	; 0x80012f <enu_blank_states>
				LED_turn_on(&led0);
 258:	82 e1       	ldi	r24, 0x12	; 18
 25a:	91 e0       	ldi	r25, 0x01	; 1
 25c:	0e 94 4a 03 	call	0x694	; 0x694 <LED_turn_on>
				LED_turn_on(&led1);
 260:	81 e1       	ldi	r24, 0x11	; 17
 262:	91 e0       	ldi	r25, 0x01	; 1
 264:	0e 94 4a 03 	call	0x694	; 0x694 <LED_turn_on>
				LED_turn_on(&led2);
 268:	80 e1       	ldi	r24, 0x10	; 16
 26a:	91 e0       	ldi	r25, 0x01	; 1
 26c:	0e 94 4a 03 	call	0x694	; 0x694 <LED_turn_on>
				TIMER0_start(&timer0);
 270:	80 e0       	ldi	r24, 0x00	; 0
 272:	91 e0       	ldi	r25, 0x01	; 1
 274:	0e 94 b0 06 	call	0xd60	; 0xd60 <TIMER0_start>
				TIMER0_delay_ms(from);
 278:	c7 01       	movw	r24, r14
 27a:	b6 01       	movw	r22, r12
 27c:	0e 94 fd 06 	call	0xdfa	; 0xdfa <TIMER0_delay_ms>
 280:	5a c1       	rjmp	.+692    	; 0x536 <__stack+0x37>
			}
			else if((enu_timer_state_flag == TIMER_FLAG_IS_FIRE) && (enu_blank_states == BLANK_IN_TURN_OFF))
 282:	90 91 15 01 	lds	r25, 0x0115	; 0x800115 <enu_timer_state_flag>
 286:	91 11       	cpse	r25, r1
 288:	1c c0       	rjmp	.+56     	; 0x2c2 <BlinkModes+0x1b0>
 28a:	81 30       	cpi	r24, 0x01	; 1
 28c:	d1 f4       	brne	.+52     	; 0x2c2 <BlinkModes+0x1b0>
			{
				enu_timer_state_flag = TIMER_FLAG_REST;
 28e:	80 93 15 01 	sts	0x0115, r24	; 0x800115 <enu_timer_state_flag>
				enu_blank_states = BLANK_IN_RESET;
 292:	82 e0       	ldi	r24, 0x02	; 2
 294:	80 93 2f 01 	sts	0x012F, r24	; 0x80012f <enu_blank_states>
				LED_turn_off(&led0);
 298:	82 e1       	ldi	r24, 0x12	; 18
 29a:	91 e0       	ldi	r25, 0x01	; 1
 29c:	0e 94 74 03 	call	0x6e8	; 0x6e8 <LED_turn_off>
				LED_turn_off(&led1);
 2a0:	81 e1       	ldi	r24, 0x11	; 17
 2a2:	91 e0       	ldi	r25, 0x01	; 1
 2a4:	0e 94 74 03 	call	0x6e8	; 0x6e8 <LED_turn_off>
				LED_turn_off(&led2);
 2a8:	80 e1       	ldi	r24, 0x10	; 16
 2aa:	91 e0       	ldi	r25, 0x01	; 1
 2ac:	0e 94 74 03 	call	0x6e8	; 0x6e8 <LED_turn_off>
				TIMER0_start(&timer0);
 2b0:	80 e0       	ldi	r24, 0x00	; 0
 2b2:	91 e0       	ldi	r25, 0x01	; 1
 2b4:	0e 94 b0 06 	call	0xd60	; 0xd60 <TIMER0_start>
				TIMER0_delay_ms(to);
 2b8:	c5 01       	movw	r24, r10
 2ba:	b4 01       	movw	r22, r8
 2bc:	0e 94 fd 06 	call	0xdfa	; 0xdfa <TIMER0_delay_ms>
 2c0:	3a c1       	rjmp	.+628    	; 0x536 <__stack+0x37>
			}
			else if((enu_timer_state_flag == TIMER_FLAG_IS_FIRE) && (enu_blank_states == BLANK_IN_RESET))
 2c2:	91 11       	cpse	r25, r1
 2c4:	38 c1       	rjmp	.+624    	; 0x536 <__stack+0x37>
 2c6:	82 30       	cpi	r24, 0x02	; 2
 2c8:	09 f0       	breq	.+2      	; 0x2cc <BlinkModes+0x1ba>
 2ca:	35 c1       	rjmp	.+618    	; 0x536 <__stack+0x37>
			{
				enu_timer_state_flag = TIMER_FLAG_REST;
 2cc:	81 e0       	ldi	r24, 0x01	; 1
 2ce:	80 93 15 01 	sts	0x0115, r24	; 0x800115 <enu_timer_state_flag>
				enu_blank_states = BLANK_IN_TURN_ON;
 2d2:	10 92 2f 01 	sts	0x012F, r1	; 0x80012f <enu_blank_states>
 2d6:	2f c1       	rjmp	.+606    	; 0x536 <__stack+0x37>
			}
			break;
		}
		case FOUR_PRESS:
		{
			if((enu_blank_states == BLANK_IN_TURN_ON) && (enu_timer_state_flag == TIMER_FLAG_REST))
 2d8:	80 91 2f 01 	lds	r24, 0x012F	; 0x80012f <enu_blank_states>
 2dc:	81 11       	cpse	r24, r1
 2de:	20 c0       	rjmp	.+64     	; 0x320 <BlinkModes+0x20e>
 2e0:	90 91 15 01 	lds	r25, 0x0115	; 0x800115 <enu_timer_state_flag>
 2e4:	91 30       	cpi	r25, 0x01	; 1
 2e6:	e1 f4       	brne	.+56     	; 0x320 <BlinkModes+0x20e>
			{
				enu_blank_states = BLANK_IN_TURN_OFF;
 2e8:	81 e0       	ldi	r24, 0x01	; 1
 2ea:	80 93 2f 01 	sts	0x012F, r24	; 0x80012f <enu_blank_states>
				LED_turn_on(&led0);
 2ee:	82 e1       	ldi	r24, 0x12	; 18
 2f0:	91 e0       	ldi	r25, 0x01	; 1
 2f2:	0e 94 4a 03 	call	0x694	; 0x694 <LED_turn_on>
				LED_turn_on(&led1);
 2f6:	81 e1       	ldi	r24, 0x11	; 17
 2f8:	91 e0       	ldi	r25, 0x01	; 1
 2fa:	0e 94 4a 03 	call	0x694	; 0x694 <LED_turn_on>
				LED_turn_on(&led2);
 2fe:	80 e1       	ldi	r24, 0x10	; 16
 300:	91 e0       	ldi	r25, 0x01	; 1
 302:	0e 94 4a 03 	call	0x694	; 0x694 <LED_turn_on>
				LED_turn_on(&led3);
 306:	8f e0       	ldi	r24, 0x0F	; 15
 308:	91 e0       	ldi	r25, 0x01	; 1
 30a:	0e 94 4a 03 	call	0x694	; 0x694 <LED_turn_on>
				TIMER0_start(&timer0);
 30e:	80 e0       	ldi	r24, 0x00	; 0
 310:	91 e0       	ldi	r25, 0x01	; 1
 312:	0e 94 b0 06 	call	0xd60	; 0xd60 <TIMER0_start>
				TIMER0_delay_ms(from);
 316:	c7 01       	movw	r24, r14
 318:	b6 01       	movw	r22, r12
 31a:	0e 94 fd 06 	call	0xdfa	; 0xdfa <TIMER0_delay_ms>
 31e:	0b c1       	rjmp	.+534    	; 0x536 <__stack+0x37>
			}
			else if((enu_timer_state_flag == TIMER_FLAG_IS_FIRE) && (enu_blank_states == BLANK_IN_TURN_OFF))
 320:	90 91 15 01 	lds	r25, 0x0115	; 0x800115 <enu_timer_state_flag>
 324:	91 11       	cpse	r25, r1
 326:	20 c0       	rjmp	.+64     	; 0x368 <BlinkModes+0x256>
 328:	81 30       	cpi	r24, 0x01	; 1
 32a:	f1 f4       	brne	.+60     	; 0x368 <BlinkModes+0x256>
			{
				enu_timer_state_flag = TIMER_FLAG_REST;
 32c:	80 93 15 01 	sts	0x0115, r24	; 0x800115 <enu_timer_state_flag>
				enu_blank_states = BLANK_IN_RESET;
 330:	82 e0       	ldi	r24, 0x02	; 2
 332:	80 93 2f 01 	sts	0x012F, r24	; 0x80012f <enu_blank_states>
				LED_turn_off(&led0);
 336:	82 e1       	ldi	r24, 0x12	; 18
 338:	91 e0       	ldi	r25, 0x01	; 1
 33a:	0e 94 74 03 	call	0x6e8	; 0x6e8 <LED_turn_off>
				LED_turn_off(&led1);
 33e:	81 e1       	ldi	r24, 0x11	; 17
 340:	91 e0       	ldi	r25, 0x01	; 1
 342:	0e 94 74 03 	call	0x6e8	; 0x6e8 <LED_turn_off>
				LED_turn_off(&led2);
 346:	80 e1       	ldi	r24, 0x10	; 16
 348:	91 e0       	ldi	r25, 0x01	; 1
 34a:	0e 94 74 03 	call	0x6e8	; 0x6e8 <LED_turn_off>
				LED_turn_off(&led3);
 34e:	8f e0       	ldi	r24, 0x0F	; 15
 350:	91 e0       	ldi	r25, 0x01	; 1
 352:	0e 94 74 03 	call	0x6e8	; 0x6e8 <LED_turn_off>
				TIMER0_start(&timer0);
 356:	80 e0       	ldi	r24, 0x00	; 0
 358:	91 e0       	ldi	r25, 0x01	; 1
 35a:	0e 94 b0 06 	call	0xd60	; 0xd60 <TIMER0_start>
				TIMER0_delay_ms(to);
 35e:	c5 01       	movw	r24, r10
 360:	b4 01       	movw	r22, r8
 362:	0e 94 fd 06 	call	0xdfa	; 0xdfa <TIMER0_delay_ms>
 366:	e7 c0       	rjmp	.+462    	; 0x536 <__stack+0x37>
			}
			else if((enu_timer_state_flag == TIMER_FLAG_IS_FIRE) && (enu_blank_states == BLANK_IN_RESET))
 368:	91 11       	cpse	r25, r1
 36a:	e5 c0       	rjmp	.+458    	; 0x536 <__stack+0x37>
 36c:	82 30       	cpi	r24, 0x02	; 2
 36e:	09 f0       	breq	.+2      	; 0x372 <BlinkModes+0x260>
 370:	e2 c0       	rjmp	.+452    	; 0x536 <__stack+0x37>
			{
				enu_timer_state_flag = TIMER_FLAG_REST;
 372:	81 e0       	ldi	r24, 0x01	; 1
 374:	80 93 15 01 	sts	0x0115, r24	; 0x800115 <enu_timer_state_flag>
				enu_blank_states = BLANK_IN_TURN_ON;
 378:	10 92 2f 01 	sts	0x012F, r1	; 0x80012f <enu_blank_states>
 37c:	dc c0       	rjmp	.+440    	; 0x536 <__stack+0x37>
			}
			break;
		}
		case FIVE_PRESS:
		{
			if((enu_blank_states == BLANK_IN_TURN_ON) && (enu_timer_state_flag == TIMER_FLAG_REST))
 37e:	80 91 2f 01 	lds	r24, 0x012F	; 0x80012f <enu_blank_states>
 382:	81 11       	cpse	r24, r1
 384:	20 c0       	rjmp	.+64     	; 0x3c6 <BlinkModes+0x2b4>
 386:	90 91 15 01 	lds	r25, 0x0115	; 0x800115 <enu_timer_state_flag>
 38a:	91 30       	cpi	r25, 0x01	; 1
 38c:	e1 f4       	brne	.+56     	; 0x3c6 <BlinkModes+0x2b4>
			{
				enu_blank_states = BLANK_IN_TURN_OFF;
 38e:	81 e0       	ldi	r24, 0x01	; 1
 390:	80 93 2f 01 	sts	0x012F, r24	; 0x80012f <enu_blank_states>
				LED_turn_off(&led0);
 394:	82 e1       	ldi	r24, 0x12	; 18
 396:	91 e0       	ldi	r25, 0x01	; 1
 398:	0e 94 74 03 	call	0x6e8	; 0x6e8 <LED_turn_off>
				LED_turn_on(&led1);
 39c:	81 e1       	ldi	r24, 0x11	; 17
 39e:	91 e0       	ldi	r25, 0x01	; 1
 3a0:	0e 94 4a 03 	call	0x694	; 0x694 <LED_turn_on>
				LED_turn_on(&led2);
 3a4:	80 e1       	ldi	r24, 0x10	; 16
 3a6:	91 e0       	ldi	r25, 0x01	; 1
 3a8:	0e 94 4a 03 	call	0x694	; 0x694 <LED_turn_on>
				LED_turn_on(&led3);
 3ac:	8f e0       	ldi	r24, 0x0F	; 15
 3ae:	91 e0       	ldi	r25, 0x01	; 1
 3b0:	0e 94 4a 03 	call	0x694	; 0x694 <LED_turn_on>
				TIMER0_start(&timer0);
 3b4:	80 e0       	ldi	r24, 0x00	; 0
 3b6:	91 e0       	ldi	r25, 0x01	; 1
 3b8:	0e 94 b0 06 	call	0xd60	; 0xd60 <TIMER0_start>
				TIMER0_delay_ms(from);
 3bc:	c7 01       	movw	r24, r14
 3be:	b6 01       	movw	r22, r12
 3c0:	0e 94 fd 06 	call	0xdfa	; 0xdfa <TIMER0_delay_ms>
 3c4:	b8 c0       	rjmp	.+368    	; 0x536 <__stack+0x37>
			}
			else if((enu_timer_state_flag == TIMER_FLAG_IS_FIRE) && (enu_blank_states == BLANK_IN_TURN_OFF))
 3c6:	90 91 15 01 	lds	r25, 0x0115	; 0x800115 <enu_timer_state_flag>
 3ca:	91 11       	cpse	r25, r1
 3cc:	1c c0       	rjmp	.+56     	; 0x406 <__DATA_REGION_LENGTH__+0x6>
 3ce:	81 30       	cpi	r24, 0x01	; 1
 3d0:	d1 f4       	brne	.+52     	; 0x406 <__DATA_REGION_LENGTH__+0x6>
			{
				enu_timer_state_flag = TIMER_FLAG_REST;
 3d2:	80 93 15 01 	sts	0x0115, r24	; 0x800115 <enu_timer_state_flag>
				enu_blank_states = BLANK_IN_RESET;
 3d6:	82 e0       	ldi	r24, 0x02	; 2
 3d8:	80 93 2f 01 	sts	0x012F, r24	; 0x80012f <enu_blank_states>
				LED_turn_off(&led1);
 3dc:	81 e1       	ldi	r24, 0x11	; 17
 3de:	91 e0       	ldi	r25, 0x01	; 1
 3e0:	0e 94 74 03 	call	0x6e8	; 0x6e8 <LED_turn_off>
				LED_turn_off(&led2);
 3e4:	80 e1       	ldi	r24, 0x10	; 16
 3e6:	91 e0       	ldi	r25, 0x01	; 1
 3e8:	0e 94 74 03 	call	0x6e8	; 0x6e8 <LED_turn_off>
				LED_turn_off(&led3);
 3ec:	8f e0       	ldi	r24, 0x0F	; 15
 3ee:	91 e0       	ldi	r25, 0x01	; 1
 3f0:	0e 94 74 03 	call	0x6e8	; 0x6e8 <LED_turn_off>
				TIMER0_start(&timer0);
 3f4:	80 e0       	ldi	r24, 0x00	; 0
 3f6:	91 e0       	ldi	r25, 0x01	; 1
 3f8:	0e 94 b0 06 	call	0xd60	; 0xd60 <TIMER0_start>
				TIMER0_delay_ms(to);
 3fc:	c5 01       	movw	r24, r10
 3fe:	b4 01       	movw	r22, r8
 400:	0e 94 fd 06 	call	0xdfa	; 0xdfa <TIMER0_delay_ms>
 404:	98 c0       	rjmp	.+304    	; 0x536 <__stack+0x37>
			}
			else if((enu_timer_state_flag == TIMER_FLAG_IS_FIRE) && (enu_blank_states == BLANK_IN_RESET))
 406:	91 11       	cpse	r25, r1
 408:	96 c0       	rjmp	.+300    	; 0x536 <__stack+0x37>
 40a:	82 30       	cpi	r24, 0x02	; 2
 40c:	09 f0       	breq	.+2      	; 0x410 <__DATA_REGION_LENGTH__+0x10>
 40e:	93 c0       	rjmp	.+294    	; 0x536 <__stack+0x37>
			{
				enu_timer_state_flag = TIMER_FLAG_REST;
 410:	81 e0       	ldi	r24, 0x01	; 1
 412:	80 93 15 01 	sts	0x0115, r24	; 0x800115 <enu_timer_state_flag>
				enu_blank_states = BLANK_IN_TURN_ON;
 416:	10 92 2f 01 	sts	0x012F, r1	; 0x80012f <enu_blank_states>
 41a:	8d c0       	rjmp	.+282    	; 0x536 <__stack+0x37>
			}
			break;
		}
		case SIX_PRESS:
		{
			if((enu_blank_states == BLANK_IN_TURN_ON) && (enu_timer_state_flag == TIMER_FLAG_REST))
 41c:	80 91 2f 01 	lds	r24, 0x012F	; 0x80012f <enu_blank_states>
 420:	81 11       	cpse	r24, r1
 422:	18 c0       	rjmp	.+48     	; 0x454 <__DATA_REGION_LENGTH__+0x54>
 424:	90 91 15 01 	lds	r25, 0x0115	; 0x800115 <enu_timer_state_flag>
 428:	91 30       	cpi	r25, 0x01	; 1
 42a:	a1 f4       	brne	.+40     	; 0x454 <__DATA_REGION_LENGTH__+0x54>
			{
				enu_blank_states = BLANK_IN_TURN_OFF;
 42c:	81 e0       	ldi	r24, 0x01	; 1
 42e:	80 93 2f 01 	sts	0x012F, r24	; 0x80012f <enu_blank_states>
				LED_turn_on(&led2);
 432:	80 e1       	ldi	r24, 0x10	; 16
 434:	91 e0       	ldi	r25, 0x01	; 1
 436:	0e 94 4a 03 	call	0x694	; 0x694 <LED_turn_on>
				LED_turn_on(&led3);
 43a:	8f e0       	ldi	r24, 0x0F	; 15
 43c:	91 e0       	ldi	r25, 0x01	; 1
 43e:	0e 94 4a 03 	call	0x694	; 0x694 <LED_turn_on>
				TIMER0_start(&timer0);
 442:	80 e0       	ldi	r24, 0x00	; 0
 444:	91 e0       	ldi	r25, 0x01	; 1
 446:	0e 94 b0 06 	call	0xd60	; 0xd60 <TIMER0_start>
				TIMER0_delay_ms(from);
 44a:	c7 01       	movw	r24, r14
 44c:	b6 01       	movw	r22, r12
 44e:	0e 94 fd 06 	call	0xdfa	; 0xdfa <TIMER0_delay_ms>
 452:	71 c0       	rjmp	.+226    	; 0x536 <__stack+0x37>
			}
			else if((enu_timer_state_flag == TIMER_FLAG_IS_FIRE) && (enu_blank_states == BLANK_IN_TURN_OFF))
 454:	90 91 15 01 	lds	r25, 0x0115	; 0x800115 <enu_timer_state_flag>
 458:	91 11       	cpse	r25, r1
 45a:	18 c0       	rjmp	.+48     	; 0x48c <__DATA_REGION_LENGTH__+0x8c>
 45c:	81 30       	cpi	r24, 0x01	; 1
 45e:	b1 f4       	brne	.+44     	; 0x48c <__DATA_REGION_LENGTH__+0x8c>
			{
				enu_timer_state_flag = TIMER_FLAG_REST;
 460:	80 93 15 01 	sts	0x0115, r24	; 0x800115 <enu_timer_state_flag>
				enu_blank_states = BLANK_IN_RESET;
 464:	82 e0       	ldi	r24, 0x02	; 2
 466:	80 93 2f 01 	sts	0x012F, r24	; 0x80012f <enu_blank_states>
				LED_turn_off(&led2);
 46a:	80 e1       	ldi	r24, 0x10	; 16
 46c:	91 e0       	ldi	r25, 0x01	; 1
 46e:	0e 94 74 03 	call	0x6e8	; 0x6e8 <LED_turn_off>
				LED_turn_off(&led3);
 472:	8f e0       	ldi	r24, 0x0F	; 15
 474:	91 e0       	ldi	r25, 0x01	; 1
 476:	0e 94 74 03 	call	0x6e8	; 0x6e8 <LED_turn_off>
				TIMER0_start(&timer0);
 47a:	80 e0       	ldi	r24, 0x00	; 0
 47c:	91 e0       	ldi	r25, 0x01	; 1
 47e:	0e 94 b0 06 	call	0xd60	; 0xd60 <TIMER0_start>
				TIMER0_delay_ms(to);
 482:	c5 01       	movw	r24, r10
 484:	b4 01       	movw	r22, r8
 486:	0e 94 fd 06 	call	0xdfa	; 0xdfa <TIMER0_delay_ms>
 48a:	55 c0       	rjmp	.+170    	; 0x536 <__stack+0x37>
			}
			else if((enu_timer_state_flag == TIMER_FLAG_IS_FIRE) && (enu_blank_states == BLANK_IN_RESET))
 48c:	91 11       	cpse	r25, r1
 48e:	53 c0       	rjmp	.+166    	; 0x536 <__stack+0x37>
 490:	82 30       	cpi	r24, 0x02	; 2
 492:	09 f0       	breq	.+2      	; 0x496 <__DATA_REGION_LENGTH__+0x96>
 494:	50 c0       	rjmp	.+160    	; 0x536 <__stack+0x37>
			{
				enu_timer_state_flag = TIMER_FLAG_REST;
 496:	81 e0       	ldi	r24, 0x01	; 1
 498:	80 93 15 01 	sts	0x0115, r24	; 0x800115 <enu_timer_state_flag>
				enu_blank_states = BLANK_IN_TURN_ON;
 49c:	10 92 2f 01 	sts	0x012F, r1	; 0x80012f <enu_blank_states>
 4a0:	4a c0       	rjmp	.+148    	; 0x536 <__stack+0x37>
			}
			break;
		}
		case SEVEN_PRESS:
		{
			if((enu_blank_states == BLANK_IN_TURN_ON) && (enu_timer_state_flag == TIMER_FLAG_REST))
 4a2:	80 91 2f 01 	lds	r24, 0x012F	; 0x80012f <enu_blank_states>
 4a6:	81 11       	cpse	r24, r1
 4a8:	14 c0       	rjmp	.+40     	; 0x4d2 <__DATA_REGION_LENGTH__+0xd2>
 4aa:	90 91 15 01 	lds	r25, 0x0115	; 0x800115 <enu_timer_state_flag>
 4ae:	91 30       	cpi	r25, 0x01	; 1
 4b0:	81 f4       	brne	.+32     	; 0x4d2 <__DATA_REGION_LENGTH__+0xd2>
			{
				enu_blank_states = BLANK_IN_TURN_OFF;
 4b2:	81 e0       	ldi	r24, 0x01	; 1
 4b4:	80 93 2f 01 	sts	0x012F, r24	; 0x80012f <enu_blank_states>
				LED_turn_on(&led3);
 4b8:	8f e0       	ldi	r24, 0x0F	; 15
 4ba:	91 e0       	ldi	r25, 0x01	; 1
 4bc:	0e 94 4a 03 	call	0x694	; 0x694 <LED_turn_on>
				TIMER0_start(&timer0);
 4c0:	80 e0       	ldi	r24, 0x00	; 0
 4c2:	91 e0       	ldi	r25, 0x01	; 1
 4c4:	0e 94 b0 06 	call	0xd60	; 0xd60 <TIMER0_start>
				TIMER0_delay_ms(from);
 4c8:	c7 01       	movw	r24, r14
 4ca:	b6 01       	movw	r22, r12
 4cc:	0e 94 fd 06 	call	0xdfa	; 0xdfa <TIMER0_delay_ms>
 4d0:	32 c0       	rjmp	.+100    	; 0x536 <__stack+0x37>
			}
			else if((enu_timer_state_flag == TIMER_FLAG_IS_FIRE) && (enu_blank_states == BLANK_IN_TURN_OFF))
 4d2:	90 91 15 01 	lds	r25, 0x0115	; 0x800115 <enu_timer_state_flag>
 4d6:	91 11       	cpse	r25, r1
 4d8:	14 c0       	rjmp	.+40     	; 0x502 <__stack+0x3>
 4da:	81 30       	cpi	r24, 0x01	; 1
 4dc:	91 f4       	brne	.+36     	; 0x502 <__stack+0x3>
			{
				enu_timer_state_flag = TIMER_FLAG_REST;
 4de:	80 93 15 01 	sts	0x0115, r24	; 0x800115 <enu_timer_state_flag>
				enu_blank_states = BLANK_IN_RESET;
 4e2:	82 e0       	ldi	r24, 0x02	; 2
 4e4:	80 93 2f 01 	sts	0x012F, r24	; 0x80012f <enu_blank_states>
				LED_turn_off(&led3);
 4e8:	8f e0       	ldi	r24, 0x0F	; 15
 4ea:	91 e0       	ldi	r25, 0x01	; 1
 4ec:	0e 94 74 03 	call	0x6e8	; 0x6e8 <LED_turn_off>
				TIMER0_start(&timer0);
 4f0:	80 e0       	ldi	r24, 0x00	; 0
 4f2:	91 e0       	ldi	r25, 0x01	; 1
 4f4:	0e 94 b0 06 	call	0xd60	; 0xd60 <TIMER0_start>
				TIMER0_delay_ms(to);
 4f8:	c5 01       	movw	r24, r10
 4fa:	b4 01       	movw	r22, r8
 4fc:	0e 94 fd 06 	call	0xdfa	; 0xdfa <TIMER0_delay_ms>
 500:	1a c0       	rjmp	.+52     	; 0x536 <__stack+0x37>
			}
			else if((enu_timer_state_flag == TIMER_FLAG_IS_FIRE) && (enu_blank_states == BLANK_IN_RESET))
 502:	91 11       	cpse	r25, r1
 504:	18 c0       	rjmp	.+48     	; 0x536 <__stack+0x37>
 506:	82 30       	cpi	r24, 0x02	; 2
 508:	b1 f4       	brne	.+44     	; 0x536 <__stack+0x37>
			{
				enu_timer_state_flag = TIMER_FLAG_REST;
 50a:	81 e0       	ldi	r24, 0x01	; 1
 50c:	80 93 15 01 	sts	0x0115, r24	; 0x800115 <enu_timer_state_flag>
				enu_blank_states = BLANK_IN_TURN_ON;
 510:	10 92 2f 01 	sts	0x012F, r1	; 0x80012f <enu_blank_states>
 514:	10 c0       	rjmp	.+32     	; 0x536 <__stack+0x37>

			break;
		}
		case EIGHT_PRESS:
		{
			LED_turn_off(&led0);
 516:	82 e1       	ldi	r24, 0x12	; 18
 518:	91 e0       	ldi	r25, 0x01	; 1
 51a:	0e 94 74 03 	call	0x6e8	; 0x6e8 <LED_turn_off>
			LED_turn_off(&led1);
 51e:	81 e1       	ldi	r24, 0x11	; 17
 520:	91 e0       	ldi	r25, 0x01	; 1
 522:	0e 94 74 03 	call	0x6e8	; 0x6e8 <LED_turn_off>
			LED_turn_off(&led2);
 526:	80 e1       	ldi	r24, 0x10	; 16
 528:	91 e0       	ldi	r25, 0x01	; 1
 52a:	0e 94 74 03 	call	0x6e8	; 0x6e8 <LED_turn_off>
			LED_turn_off(&led3);
 52e:	8f e0       	ldi	r24, 0x0F	; 15
 530:	91 e0       	ldi	r25, 0x01	; 1
 532:	0e 94 74 03 	call	0x6e8	; 0x6e8 <LED_turn_off>
		}
		break;
	}
}
 536:	ff 90       	pop	r15
 538:	ef 90       	pop	r14
 53a:	df 90       	pop	r13
 53c:	cf 90       	pop	r12
 53e:	bf 90       	pop	r11
 540:	af 90       	pop	r10
 542:	9f 90       	pop	r9
 544:	8f 90       	pop	r8
 546:	08 95       	ret

00000548 <appmain>:
}

void appmain(void)
{

	LED_initialize(&led0);
 548:	82 e1       	ldi	r24, 0x12	; 18
 54a:	91 e0       	ldi	r25, 0x01	; 1
 54c:	0e 94 21 03 	call	0x642	; 0x642 <LED_initialize>
	LED_initialize(&led1);
 550:	81 e1       	ldi	r24, 0x11	; 17
 552:	91 e0       	ldi	r25, 0x01	; 1
 554:	0e 94 21 03 	call	0x642	; 0x642 <LED_initialize>
	LED_initialize(&led2);
 558:	80 e1       	ldi	r24, 0x10	; 16
 55a:	91 e0       	ldi	r25, 0x01	; 1
 55c:	0e 94 21 03 	call	0x642	; 0x642 <LED_initialize>
	LED_initialize(&led3);
 560:	8f e0       	ldi	r24, 0x0F	; 15
 562:	91 e0       	ldi	r25, 0x01	; 1
 564:	0e 94 21 03 	call	0x642	; 0x642 <LED_initialize>
	EXT_vINTERRUPT_Init(&int2);
 568:	88 e0       	ldi	r24, 0x08	; 8
 56a:	91 e0       	ldi	r25, 0x01	; 1
 56c:	0e 94 bc 04 	call	0x978	; 0x978 <EXT_vINTERRUPT_Init>
	EXT_INTERRUPT_SetInterruptHandler(&int2);
 570:	88 e0       	ldi	r24, 0x08	; 8
 572:	91 e0       	ldi	r25, 0x01	; 1
 574:	0e 94 52 05 	call	0xaa4	; 0xaa4 <EXT_INTERRUPT_SetInterruptHandler>
	PUSH_BTN_intialize(&btn0);
 578:	8c e0       	ldi	r24, 0x0C	; 12
 57a:	91 e0       	ldi	r25, 0x01	; 1
 57c:	0e 94 9e 03 	call	0x73c	; 0x73c <PUSH_BTN_intialize>
	TIMER0_init(&timer0);
 580:	80 e0       	ldi	r24, 0x00	; 0
 582:	91 e0       	ldi	r25, 0x01	; 1
 584:	0e 94 fc 05 	call	0xbf8	; 0xbf8 <TIMER0_init>
	
	while(1)
	{
		PUSH_BTN_read_state(&btn0,&seq_counter_btn);
 588:	63 e1       	ldi	r22, 0x13	; 19
 58a:	71 e0       	ldi	r23, 0x01	; 1
 58c:	8c e0       	ldi	r24, 0x0C	; 12
 58e:	91 e0       	ldi	r25, 0x01	; 1
 590:	0e 94 a5 03 	call	0x74a	; 0x74a <PUSH_BTN_read_state>
		if(seq_counter_btn == PUSH_BTN_STATE_PRESSED)
 594:	80 91 13 01 	lds	r24, 0x0113	; 0x800113 <seq_counter_btn>
 598:	88 23       	and	r24, r24
 59a:	39 f0       	breq	.+14     	; 0x5aa <appmain+0x62>
 59c:	0c c0       	rjmp	.+24     	; 0x5b6 <appmain+0x6e>
		{
			while(seq_counter_btn == PUSH_BTN_STATE_PRESSED)
			{
				PUSH_BTN_read_state(&btn0,&seq_counter_btn);
 59e:	63 e1       	ldi	r22, 0x13	; 19
 5a0:	71 e0       	ldi	r23, 0x01	; 1
 5a2:	8c e0       	ldi	r24, 0x0C	; 12
 5a4:	91 e0       	ldi	r25, 0x01	; 1
 5a6:	0e 94 a5 03 	call	0x74a	; 0x74a <PUSH_BTN_read_state>
	while(1)
	{
		PUSH_BTN_read_state(&btn0,&seq_counter_btn);
		if(seq_counter_btn == PUSH_BTN_STATE_PRESSED)
		{
			while(seq_counter_btn == PUSH_BTN_STATE_PRESSED)
 5aa:	80 91 13 01 	lds	r24, 0x0113	; 0x800113 <seq_counter_btn>
 5ae:	88 23       	and	r24, r24
 5b0:	b1 f3       	breq	.-20     	; 0x59e <appmain+0x56>
			{
				PUSH_BTN_read_state(&btn0,&seq_counter_btn);
			}
			seq();
 5b2:	0e 94 7f 00 	call	0xfe	; 0xfe <seq>
		}
		switch(blankCounter)
 5b6:	80 91 14 01 	lds	r24, 0x0114	; 0x800114 <blankCounter>
 5ba:	83 30       	cpi	r24, 0x03	; 3
 5bc:	09 f1       	breq	.+66     	; 0x600 <appmain+0xb8>
 5be:	28 f4       	brcc	.+10     	; 0x5ca <appmain+0x82>
 5c0:	81 30       	cpi	r24, 0x01	; 1
 5c2:	41 f0       	breq	.+16     	; 0x5d4 <appmain+0x8c>
 5c4:	82 30       	cpi	r24, 0x02	; 2
 5c6:	89 f0       	breq	.+34     	; 0x5ea <appmain+0xa2>
 5c8:	df cf       	rjmp	.-66     	; 0x588 <appmain+0x40>
 5ca:	84 30       	cpi	r24, 0x04	; 4
 5cc:	21 f1       	breq	.+72     	; 0x616 <appmain+0xce>
 5ce:	85 30       	cpi	r24, 0x05	; 5
 5d0:	69 f1       	breq	.+90     	; 0x62c <appmain+0xe4>
 5d2:	da cf       	rjmp	.-76     	; 0x588 <appmain+0x40>
		{
			case ONE_PRESS :
			{
				BlinkModes(100,900);
 5d4:	24 e8       	ldi	r18, 0x84	; 132
 5d6:	33 e0       	ldi	r19, 0x03	; 3
 5d8:	40 e0       	ldi	r20, 0x00	; 0
 5da:	50 e0       	ldi	r21, 0x00	; 0
 5dc:	64 e6       	ldi	r22, 0x64	; 100
 5de:	70 e0       	ldi	r23, 0x00	; 0
 5e0:	80 e0       	ldi	r24, 0x00	; 0
 5e2:	90 e0       	ldi	r25, 0x00	; 0
 5e4:	0e 94 89 00 	call	0x112	; 0x112 <BlinkModes>
				break;
 5e8:	cf cf       	rjmp	.-98     	; 0x588 <appmain+0x40>
			}
			case TWO_PRESS :
			{
				BlinkModes(200,800);
 5ea:	20 e2       	ldi	r18, 0x20	; 32
 5ec:	33 e0       	ldi	r19, 0x03	; 3
 5ee:	40 e0       	ldi	r20, 0x00	; 0
 5f0:	50 e0       	ldi	r21, 0x00	; 0
 5f2:	68 ec       	ldi	r22, 0xC8	; 200
 5f4:	70 e0       	ldi	r23, 0x00	; 0
 5f6:	80 e0       	ldi	r24, 0x00	; 0
 5f8:	90 e0       	ldi	r25, 0x00	; 0
 5fa:	0e 94 89 00 	call	0x112	; 0x112 <BlinkModes>
				break;
 5fe:	c4 cf       	rjmp	.-120    	; 0x588 <appmain+0x40>
			}
			case THREE_PRESS :
			{
				BlinkModes(300,700);
 600:	2c eb       	ldi	r18, 0xBC	; 188
 602:	32 e0       	ldi	r19, 0x02	; 2
 604:	40 e0       	ldi	r20, 0x00	; 0
 606:	50 e0       	ldi	r21, 0x00	; 0
 608:	6c e2       	ldi	r22, 0x2C	; 44
 60a:	71 e0       	ldi	r23, 0x01	; 1
 60c:	80 e0       	ldi	r24, 0x00	; 0
 60e:	90 e0       	ldi	r25, 0x00	; 0
 610:	0e 94 89 00 	call	0x112	; 0x112 <BlinkModes>
				break;
 614:	b9 cf       	rjmp	.-142    	; 0x588 <appmain+0x40>
			}
			case FOUR_PRESS :
			{
				BlinkModes(500,500);
 616:	24 ef       	ldi	r18, 0xF4	; 244
 618:	31 e0       	ldi	r19, 0x01	; 1
 61a:	40 e0       	ldi	r20, 0x00	; 0
 61c:	50 e0       	ldi	r21, 0x00	; 0
 61e:	64 ef       	ldi	r22, 0xF4	; 244
 620:	71 e0       	ldi	r23, 0x01	; 1
 622:	80 e0       	ldi	r24, 0x00	; 0
 624:	90 e0       	ldi	r25, 0x00	; 0
 626:	0e 94 89 00 	call	0x112	; 0x112 <BlinkModes>
				break;
 62a:	ae cf       	rjmp	.-164    	; 0x588 <appmain+0x40>
			}
			case FIVE_PRESS :
			{
				BlinkModes(800,200);
 62c:	28 ec       	ldi	r18, 0xC8	; 200
 62e:	30 e0       	ldi	r19, 0x00	; 0
 630:	40 e0       	ldi	r20, 0x00	; 0
 632:	50 e0       	ldi	r21, 0x00	; 0
 634:	60 e2       	ldi	r22, 0x20	; 32
 636:	73 e0       	ldi	r23, 0x03	; 3
 638:	80 e0       	ldi	r24, 0x00	; 0
 63a:	90 e0       	ldi	r25, 0x00	; 0
 63c:	0e 94 89 00 	call	0x112	; 0x112 <BlinkModes>
				break;
 640:	a3 cf       	rjmp	.-186    	; 0x588 <appmain+0x40>

00000642 <LED_initialize>:
 */

#include"LED_interface.h"

Std_ReturnType LED_initialize(const ST_led_t *led)
{
 642:	cf 93       	push	r28
 644:	df 93       	push	r29
 646:	1f 92       	push	r1
 648:	cd b7       	in	r28, 0x3d	; 61
 64a:	de b7       	in	r29, 0x3e	; 62
	Std_ReturnType ret = E_NOT_OK;
	if(PTR_NULL == led)
 64c:	00 97       	sbiw	r24, 0x00	; 0
 64e:	e9 f0       	breq	.+58     	; 0x68a <LED_initialize+0x48>
 650:	fc 01       	movw	r30, r24
	}
	else
	{
		ST_pin_config_t LED_pin_obj =
		{
			.port = led->port_name,
 652:	20 81       	ld	r18, Z
 654:	92 2f       	mov	r25, r18
 656:	97 70       	andi	r25, 0x07	; 7
	{
		ret = E_NOT_OK;
	}
	else
	{
		ST_pin_config_t LED_pin_obj =
 658:	89 81       	ldd	r24, Y+1	; 0x01
 65a:	88 7f       	andi	r24, 0xF8	; 248
 65c:	89 2b       	or	r24, r25
		{
			.port = led->port_name,
			.pin = led->pin,
 65e:	92 2f       	mov	r25, r18
 660:	96 95       	lsr	r25
 662:	96 95       	lsr	r25
 664:	96 95       	lsr	r25
	{
		ret = E_NOT_OK;
	}
	else
	{
		ST_pin_config_t LED_pin_obj =
 666:	97 70       	andi	r25, 0x07	; 7
 668:	99 0f       	add	r25, r25
 66a:	99 0f       	add	r25, r25
 66c:	99 0f       	add	r25, r25
 66e:	87 7c       	andi	r24, 0xC7	; 199
 670:	89 2b       	or	r24, r25
		{
			.port = led->port_name,
			.pin = led->pin,
			.direction = GPIO_DIRECTION_OUTPUT,
			.logic = led->led_status
 672:	26 fb       	bst	r18, 6
 674:	22 27       	eor	r18, r18
 676:	20 f9       	bld	r18, 0
	{
		ret = E_NOT_OK;
	}
	else
	{
		ST_pin_config_t LED_pin_obj =
 678:	80 64       	ori	r24, 0x40	; 64
 67a:	20 fb       	bst	r18, 0
 67c:	87 f9       	bld	r24, 7
 67e:	89 83       	std	Y+1, r24	; 0x01
			.port = led->port_name,
			.pin = led->pin,
			.direction = GPIO_DIRECTION_OUTPUT,
			.logic = led->led_status
		};
		ret = GPIO_pin_intialize(&LED_pin_obj);
 680:	ce 01       	movw	r24, r28
 682:	01 96       	adiw	r24, 0x01	; 1
 684:	0e 94 8b 04 	call	0x916	; 0x916 <GPIO_pin_intialize>
 688:	01 c0       	rjmp	.+2      	; 0x68c <LED_initialize+0x4a>
Std_ReturnType LED_initialize(const ST_led_t *led)
{
	Std_ReturnType ret = E_NOT_OK;
	if(PTR_NULL == led)
	{
		ret = E_NOT_OK;
 68a:	80 e0       	ldi	r24, 0x00	; 0
			.logic = led->led_status
		};
		ret = GPIO_pin_intialize(&LED_pin_obj);
	}
	return ret;
}
 68c:	0f 90       	pop	r0
 68e:	df 91       	pop	r29
 690:	cf 91       	pop	r28
 692:	08 95       	ret

00000694 <LED_turn_on>:
Std_ReturnType LED_turn_on(const ST_led_t *led)
{
 694:	cf 93       	push	r28
 696:	df 93       	push	r29
 698:	1f 92       	push	r1
 69a:	cd b7       	in	r28, 0x3d	; 61
 69c:	de b7       	in	r29, 0x3e	; 62
	Std_ReturnType ret = E_NOT_OK;
	if(PTR_NULL == led)
 69e:	00 97       	sbiw	r24, 0x00	; 0
 6a0:	f1 f0       	breq	.+60     	; 0x6de <LED_turn_on+0x4a>
 6a2:	fc 01       	movw	r30, r24
	}
	else
	{
		ST_pin_config_t LED_pin_obj =
		{
				.port = led->port_name,
 6a4:	20 81       	ld	r18, Z
 6a6:	92 2f       	mov	r25, r18
 6a8:	97 70       	andi	r25, 0x07	; 7
	{
		ret = E_NOT_OK;
	}
	else
	{
		ST_pin_config_t LED_pin_obj =
 6aa:	89 81       	ldd	r24, Y+1	; 0x01
 6ac:	88 7f       	andi	r24, 0xF8	; 248
 6ae:	89 2b       	or	r24, r25
		{
				.port = led->port_name,
				.pin = led->pin,
 6b0:	92 2f       	mov	r25, r18
 6b2:	96 95       	lsr	r25
 6b4:	96 95       	lsr	r25
 6b6:	96 95       	lsr	r25
	{
		ret = E_NOT_OK;
	}
	else
	{
		ST_pin_config_t LED_pin_obj =
 6b8:	97 70       	andi	r25, 0x07	; 7
 6ba:	99 0f       	add	r25, r25
 6bc:	99 0f       	add	r25, r25
 6be:	99 0f       	add	r25, r25
 6c0:	87 7c       	andi	r24, 0xC7	; 199
 6c2:	89 2b       	or	r24, r25
		{
				.port = led->port_name,
				.pin = led->pin,
				.direction = GPIO_DIRECTION_OUTPUT,
				.logic = led->led_status
 6c4:	26 fb       	bst	r18, 6
 6c6:	22 27       	eor	r18, r18
 6c8:	20 f9       	bld	r18, 0
	{
		ret = E_NOT_OK;
	}
	else
	{
		ST_pin_config_t LED_pin_obj =
 6ca:	80 64       	ori	r24, 0x40	; 64
 6cc:	20 fb       	bst	r18, 0
 6ce:	87 f9       	bld	r24, 7
 6d0:	89 83       	std	Y+1, r24	; 0x01
				.port = led->port_name,
				.pin = led->pin,
				.direction = GPIO_DIRECTION_OUTPUT,
				.logic = led->led_status
		};
		ret = GPIO_pin_write_logic(&LED_pin_obj , GPIO_LOGIC_HIGH);
 6d2:	61 e0       	ldi	r22, 0x01	; 1
 6d4:	ce 01       	movw	r24, r28
 6d6:	01 96       	adiw	r24, 0x01	; 1
 6d8:	0e 94 26 04 	call	0x84c	; 0x84c <GPIO_pin_write_logic>
 6dc:	01 c0       	rjmp	.+2      	; 0x6e0 <LED_turn_on+0x4c>
Std_ReturnType LED_turn_on(const ST_led_t *led)
{
	Std_ReturnType ret = E_NOT_OK;
	if(PTR_NULL == led)
	{
		ret = E_NOT_OK;
 6de:	80 e0       	ldi	r24, 0x00	; 0
				.logic = led->led_status
		};
		ret = GPIO_pin_write_logic(&LED_pin_obj , GPIO_LOGIC_HIGH);
	}
	return ret;
}
 6e0:	0f 90       	pop	r0
 6e2:	df 91       	pop	r29
 6e4:	cf 91       	pop	r28
 6e6:	08 95       	ret

000006e8 <LED_turn_off>:
Std_ReturnType LED_turn_off(const ST_led_t *led)
{
 6e8:	cf 93       	push	r28
 6ea:	df 93       	push	r29
 6ec:	1f 92       	push	r1
 6ee:	cd b7       	in	r28, 0x3d	; 61
 6f0:	de b7       	in	r29, 0x3e	; 62
	Std_ReturnType ret = E_NOT_OK;
	if(PTR_NULL == led)
 6f2:	00 97       	sbiw	r24, 0x00	; 0
 6f4:	f1 f0       	breq	.+60     	; 0x732 <LED_turn_off+0x4a>
 6f6:	fc 01       	movw	r30, r24
	}
	else
	{
		ST_pin_config_t LED_pin_obj =
		{
				.port = led->port_name,
 6f8:	20 81       	ld	r18, Z
 6fa:	92 2f       	mov	r25, r18
 6fc:	97 70       	andi	r25, 0x07	; 7
	{
		ret = E_NOT_OK;
	}
	else
	{
		ST_pin_config_t LED_pin_obj =
 6fe:	89 81       	ldd	r24, Y+1	; 0x01
 700:	88 7f       	andi	r24, 0xF8	; 248
 702:	89 2b       	or	r24, r25
		{
				.port = led->port_name,
				.pin = led->pin,
 704:	92 2f       	mov	r25, r18
 706:	96 95       	lsr	r25
 708:	96 95       	lsr	r25
 70a:	96 95       	lsr	r25
	{
		ret = E_NOT_OK;
	}
	else
	{
		ST_pin_config_t LED_pin_obj =
 70c:	97 70       	andi	r25, 0x07	; 7
 70e:	99 0f       	add	r25, r25
 710:	99 0f       	add	r25, r25
 712:	99 0f       	add	r25, r25
 714:	87 7c       	andi	r24, 0xC7	; 199
 716:	89 2b       	or	r24, r25
		{
				.port = led->port_name,
				.pin = led->pin,
				.direction = GPIO_DIRECTION_OUTPUT,
				.logic = led->led_status
 718:	26 fb       	bst	r18, 6
 71a:	22 27       	eor	r18, r18
 71c:	20 f9       	bld	r18, 0
	{
		ret = E_NOT_OK;
	}
	else
	{
		ST_pin_config_t LED_pin_obj =
 71e:	80 64       	ori	r24, 0x40	; 64
 720:	20 fb       	bst	r18, 0
 722:	87 f9       	bld	r24, 7
 724:	89 83       	std	Y+1, r24	; 0x01
				.port = led->port_name,
				.pin = led->pin,
				.direction = GPIO_DIRECTION_OUTPUT,
				.logic = led->led_status
		};
		ret = GPIO_pin_write_logic(&LED_pin_obj , GPIO_LOGIC_LOW);
 726:	60 e0       	ldi	r22, 0x00	; 0
 728:	ce 01       	movw	r24, r28
 72a:	01 96       	adiw	r24, 0x01	; 1
 72c:	0e 94 26 04 	call	0x84c	; 0x84c <GPIO_pin_write_logic>
 730:	01 c0       	rjmp	.+2      	; 0x734 <LED_turn_off+0x4c>
Std_ReturnType LED_turn_off(const ST_led_t *led)
{
	Std_ReturnType ret = E_NOT_OK;
	if(PTR_NULL == led)
	{
		ret = E_NOT_OK;
 732:	80 e0       	ldi	r24, 0x00	; 0
				.logic = led->led_status
		};
		ret = GPIO_pin_write_logic(&LED_pin_obj , GPIO_LOGIC_LOW);
	}
	return ret;
}
 734:	0f 90       	pop	r0
 736:	df 91       	pop	r29
 738:	cf 91       	pop	r28
 73a:	08 95       	ret

0000073c <PUSH_BTN_intialize>:
#include"PB_interface.h"

Std_ReturnType PUSH_BTN_intialize(const ST_PUSH_BTN_t *btn)
{
	Std_ReturnType ret = E_NOT_OK;
	if(PTR_NULL == btn)
 73c:	00 97       	sbiw	r24, 0x00	; 0
 73e:	19 f0       	breq	.+6      	; 0x746 <PUSH_BTN_intialize+0xa>
	{
		ret = E_NOT_OK;
	}
	else
	{
		ret = GPIO_pin_direction_intialize(&(btn->PUSH_BTN_pin));
 740:	0e 94 e5 03 	call	0x7ca	; 0x7ca <GPIO_pin_direction_intialize>
 744:	08 95       	ret
Std_ReturnType PUSH_BTN_intialize(const ST_PUSH_BTN_t *btn)
{
	Std_ReturnType ret = E_NOT_OK;
	if(PTR_NULL == btn)
	{
		ret = E_NOT_OK;
 746:	80 e0       	ldi	r24, 0x00	; 0
	else
	{
		ret = GPIO_pin_direction_intialize(&(btn->PUSH_BTN_pin));
	}
	return ret;
}
 748:	08 95       	ret

0000074a <PUSH_BTN_read_state>:

Std_ReturnType PUSH_BTN_read_state(const ST_PUSH_BTN_t *btn , EN_PUSH_BTN_state_t *btn_state)
{
 74a:	ef 92       	push	r14
 74c:	ff 92       	push	r15
 74e:	0f 93       	push	r16
 750:	1f 93       	push	r17
 752:	cf 93       	push	r28
 754:	df 93       	push	r29
 756:	1f 92       	push	r1
 758:	cd b7       	in	r28, 0x3d	; 61
 75a:	de b7       	in	r29, 0x3e	; 62
	Std_ReturnType ret = E_NOT_OK;
	if(PTR_NULL == btn || PTR_NULL == btn_state )
 75c:	00 97       	sbiw	r24, 0x00	; 0
 75e:	29 f1       	breq	.+74     	; 0x7aa <PUSH_BTN_read_state+0x60>
 760:	61 15       	cp	r22, r1
 762:	71 05       	cpc	r23, r1
 764:	21 f1       	breq	.+72     	; 0x7ae <PUSH_BTN_read_state+0x64>
 766:	7b 01       	movw	r14, r22
 768:	8c 01       	movw	r16, r24
	{
		ret = E_NOT_OK;
	}
	else
	{
		EN_logic_t pin_logic_status = GPIO_LOGIC_LOW;
 76a:	19 82       	std	Y+1, r1	; 0x01
		ret = GPIO_pin_read_logic(&(btn->PUSH_BTN_pin) , &pin_logic_status);
 76c:	be 01       	movw	r22, r28
 76e:	6f 5f       	subi	r22, 0xFF	; 255
 770:	7f 4f       	sbci	r23, 0xFF	; 255
 772:	0e 94 66 04 	call	0x8cc	; 0x8cc <GPIO_pin_read_logic>
		if(PUSH_BTN_PULL_UP == btn->PUSH_BTN_connection)
 776:	f8 01       	movw	r30, r16
 778:	82 81       	ldd	r24, Z+2	; 0x02
 77a:	81 11       	cpse	r24, r1
 77c:	09 c0       	rjmp	.+18     	; 0x790 <PUSH_BTN_read_state+0x46>
		{
			if(GPIO_LOGIC_HIGH == pin_logic_status)
 77e:	89 81       	ldd	r24, Y+1	; 0x01
 780:	81 30       	cpi	r24, 0x01	; 1
 782:	19 f4       	brne	.+6      	; 0x78a <PUSH_BTN_read_state+0x40>
			{
				*btn_state = PUSH_BTN_STATE_RELEASED;
 784:	f7 01       	movw	r30, r14
 786:	80 83       	st	Z, r24
 788:	0e c0       	rjmp	.+28     	; 0x7a6 <PUSH_BTN_read_state+0x5c>
			}
			else
			{
				*btn_state = PUSH_BTN_STATE_PRESSED;
 78a:	f7 01       	movw	r30, r14
 78c:	10 82       	st	Z, r1
 78e:	0b c0       	rjmp	.+22     	; 0x7a6 <PUSH_BTN_read_state+0x5c>
			}
		}
		else if(PUSH_BTN_PULL_DOWN == btn->PUSH_BTN_connection)
 790:	81 30       	cpi	r24, 0x01	; 1
 792:	49 f4       	brne	.+18     	; 0x7a6 <PUSH_BTN_read_state+0x5c>
		{
			if(GPIO_LOGIC_HIGH == pin_logic_status)
 794:	89 81       	ldd	r24, Y+1	; 0x01
 796:	81 30       	cpi	r24, 0x01	; 1
 798:	19 f4       	brne	.+6      	; 0x7a0 <PUSH_BTN_read_state+0x56>
			{
				*btn_state = PUSH_BTN_STATE_PRESSED;
 79a:	f7 01       	movw	r30, r14
 79c:	10 82       	st	Z, r1
 79e:	03 c0       	rjmp	.+6      	; 0x7a6 <PUSH_BTN_read_state+0x5c>
			}
			else
			{
				*btn_state = PUSH_BTN_STATE_RELEASED;
 7a0:	81 e0       	ldi	r24, 0x01	; 1
 7a2:	f7 01       	movw	r30, r14
 7a4:	80 83       	st	Z, r24
			}
		}
		else{/* nothing */}
		ret = E_OK;
 7a6:	81 e0       	ldi	r24, 0x01	; 1
 7a8:	03 c0       	rjmp	.+6      	; 0x7b0 <PUSH_BTN_read_state+0x66>
Std_ReturnType PUSH_BTN_read_state(const ST_PUSH_BTN_t *btn , EN_PUSH_BTN_state_t *btn_state)
{
	Std_ReturnType ret = E_NOT_OK;
	if(PTR_NULL == btn || PTR_NULL == btn_state )
	{
		ret = E_NOT_OK;
 7aa:	80 e0       	ldi	r24, 0x00	; 0
 7ac:	01 c0       	rjmp	.+2      	; 0x7b0 <PUSH_BTN_read_state+0x66>
 7ae:	80 e0       	ldi	r24, 0x00	; 0
		else{/* nothing */}
		ret = E_OK;
	}

	return ret;
}
 7b0:	0f 90       	pop	r0
 7b2:	df 91       	pop	r29
 7b4:	cf 91       	pop	r28
 7b6:	1f 91       	pop	r17
 7b8:	0f 91       	pop	r16
 7ba:	ff 90       	pop	r15
 7bc:	ef 90       	pop	r14
 7be:	08 95       	ret

000007c0 <main>:

#include "APPLICATION/app.h"

int main(void)
{
	appmain();
 7c0:	0e 94 a4 02 	call	0x548	; 0x548 <appmain>
	return 0;
}
 7c4:	80 e0       	ldi	r24, 0x00	; 0
 7c6:	90 e0       	ldi	r25, 0x00	; 0
 7c8:	08 95       	ret

000007ca <GPIO_pin_direction_intialize>:
       TOGGLE_BIT(*port_registers[_pin_config->port],_pin_config->pin);
       ret = E_OK;
    }

    return ret;
}
 7ca:	fc 01       	movw	r30, r24
 7cc:	89 2b       	or	r24, r25
 7ce:	d1 f1       	breq	.+116    	; 0x844 <GPIO_pin_direction_intialize+0x7a>
 7d0:	20 81       	ld	r18, Z
 7d2:	26 95       	lsr	r18
 7d4:	26 95       	lsr	r18
 7d6:	26 95       	lsr	r18
 7d8:	27 70       	andi	r18, 0x07	; 7
 7da:	80 81       	ld	r24, Z
 7dc:	86 fb       	bst	r24, 6
 7de:	99 27       	eor	r25, r25
 7e0:	90 f9       	bld	r25, 0
 7e2:	86 ff       	sbrs	r24, 6
 7e4:	18 c0       	rjmp	.+48     	; 0x816 <GPIO_pin_direction_intialize+0x4c>
 7e6:	91 30       	cpi	r25, 0x01	; 1
 7e8:	79 f5       	brne	.+94     	; 0x848 <GPIO_pin_direction_intialize+0x7e>
 7ea:	e8 2f       	mov	r30, r24
 7ec:	e7 70       	andi	r30, 0x07	; 7
 7ee:	f0 e0       	ldi	r31, 0x00	; 0
 7f0:	ee 0f       	add	r30, r30
 7f2:	ff 1f       	adc	r31, r31
 7f4:	ea 5d       	subi	r30, 0xDA	; 218
 7f6:	fe 4f       	sbci	r31, 0xFE	; 254
 7f8:	01 90       	ld	r0, Z+
 7fa:	f0 81       	ld	r31, Z
 7fc:	e0 2d       	mov	r30, r0
 7fe:	30 81       	ld	r19, Z
 800:	81 e0       	ldi	r24, 0x01	; 1
 802:	90 e0       	ldi	r25, 0x00	; 0
 804:	02 c0       	rjmp	.+4      	; 0x80a <GPIO_pin_direction_intialize+0x40>
 806:	88 0f       	add	r24, r24
 808:	99 1f       	adc	r25, r25
 80a:	2a 95       	dec	r18
 80c:	e2 f7       	brpl	.-8      	; 0x806 <GPIO_pin_direction_intialize+0x3c>
 80e:	83 2b       	or	r24, r19
 810:	80 83       	st	Z, r24
 812:	81 e0       	ldi	r24, 0x01	; 1
 814:	08 95       	ret
 816:	e0 81       	ld	r30, Z
 818:	e7 70       	andi	r30, 0x07	; 7
 81a:	f0 e0       	ldi	r31, 0x00	; 0
 81c:	ee 0f       	add	r30, r30
 81e:	ff 1f       	adc	r31, r31
 820:	ea 5d       	subi	r30, 0xDA	; 218
 822:	fe 4f       	sbci	r31, 0xFE	; 254
 824:	01 90       	ld	r0, Z+
 826:	f0 81       	ld	r31, Z
 828:	e0 2d       	mov	r30, r0
 82a:	30 81       	ld	r19, Z
 82c:	81 e0       	ldi	r24, 0x01	; 1
 82e:	90 e0       	ldi	r25, 0x00	; 0
 830:	02 c0       	rjmp	.+4      	; 0x836 <GPIO_pin_direction_intialize+0x6c>
 832:	88 0f       	add	r24, r24
 834:	99 1f       	adc	r25, r25
 836:	2a 95       	dec	r18
 838:	e2 f7       	brpl	.-8      	; 0x832 <GPIO_pin_direction_intialize+0x68>
 83a:	80 95       	com	r24
 83c:	83 23       	and	r24, r19
 83e:	80 83       	st	Z, r24
 840:	81 e0       	ldi	r24, 0x01	; 1
 842:	08 95       	ret
 844:	80 e0       	ldi	r24, 0x00	; 0
 846:	08 95       	ret
 848:	80 e0       	ldi	r24, 0x00	; 0
 84a:	08 95       	ret

0000084c <GPIO_pin_write_logic>:
 84c:	00 97       	sbiw	r24, 0x00	; 0
 84e:	d1 f1       	breq	.+116    	; 0x8c4 <GPIO_pin_write_logic+0x78>
 850:	dc 01       	movw	r26, r24
 852:	2c 91       	ld	r18, X
 854:	26 95       	lsr	r18
 856:	26 95       	lsr	r18
 858:	26 95       	lsr	r18
 85a:	27 70       	andi	r18, 0x07	; 7
 85c:	66 23       	and	r22, r22
 85e:	19 f0       	breq	.+6      	; 0x866 <GPIO_pin_write_logic+0x1a>
 860:	61 30       	cpi	r22, 0x01	; 1
 862:	c9 f0       	breq	.+50     	; 0x896 <GPIO_pin_write_logic+0x4a>
 864:	31 c0       	rjmp	.+98     	; 0x8c8 <GPIO_pin_write_logic+0x7c>
 866:	dc 01       	movw	r26, r24
 868:	ec 91       	ld	r30, X
 86a:	e7 70       	andi	r30, 0x07	; 7
 86c:	f0 e0       	ldi	r31, 0x00	; 0
 86e:	ee 0f       	add	r30, r30
 870:	ff 1f       	adc	r31, r31
 872:	e2 5e       	subi	r30, 0xE2	; 226
 874:	fe 4f       	sbci	r31, 0xFE	; 254
 876:	01 90       	ld	r0, Z+
 878:	f0 81       	ld	r31, Z
 87a:	e0 2d       	mov	r30, r0
 87c:	30 81       	ld	r19, Z
 87e:	81 e0       	ldi	r24, 0x01	; 1
 880:	90 e0       	ldi	r25, 0x00	; 0
 882:	02 c0       	rjmp	.+4      	; 0x888 <GPIO_pin_write_logic+0x3c>
 884:	88 0f       	add	r24, r24
 886:	99 1f       	adc	r25, r25
 888:	2a 95       	dec	r18
 88a:	e2 f7       	brpl	.-8      	; 0x884 <GPIO_pin_write_logic+0x38>
 88c:	80 95       	com	r24
 88e:	83 23       	and	r24, r19
 890:	80 83       	st	Z, r24
 892:	81 e0       	ldi	r24, 0x01	; 1
 894:	08 95       	ret
 896:	dc 01       	movw	r26, r24
 898:	ec 91       	ld	r30, X
 89a:	e7 70       	andi	r30, 0x07	; 7
 89c:	f0 e0       	ldi	r31, 0x00	; 0
 89e:	ee 0f       	add	r30, r30
 8a0:	ff 1f       	adc	r31, r31
 8a2:	e2 5e       	subi	r30, 0xE2	; 226
 8a4:	fe 4f       	sbci	r31, 0xFE	; 254
 8a6:	01 90       	ld	r0, Z+
 8a8:	f0 81       	ld	r31, Z
 8aa:	e0 2d       	mov	r30, r0
 8ac:	30 81       	ld	r19, Z
 8ae:	81 e0       	ldi	r24, 0x01	; 1
 8b0:	90 e0       	ldi	r25, 0x00	; 0
 8b2:	02 c0       	rjmp	.+4      	; 0x8b8 <GPIO_pin_write_logic+0x6c>
 8b4:	88 0f       	add	r24, r24
 8b6:	99 1f       	adc	r25, r25
 8b8:	2a 95       	dec	r18
 8ba:	e2 f7       	brpl	.-8      	; 0x8b4 <GPIO_pin_write_logic+0x68>
 8bc:	83 2b       	or	r24, r19
 8be:	80 83       	st	Z, r24
 8c0:	81 e0       	ldi	r24, 0x01	; 1
 8c2:	08 95       	ret
 8c4:	80 e0       	ldi	r24, 0x00	; 0
 8c6:	08 95       	ret
 8c8:	80 e0       	ldi	r24, 0x00	; 0
 8ca:	08 95       	ret

000008cc <GPIO_pin_read_logic>:
 8cc:	00 97       	sbiw	r24, 0x00	; 0
 8ce:	f9 f0       	breq	.+62     	; 0x90e <GPIO_pin_read_logic+0x42>
 8d0:	61 15       	cp	r22, r1
 8d2:	71 05       	cpc	r23, r1
 8d4:	f1 f0       	breq	.+60     	; 0x912 <GPIO_pin_read_logic+0x46>
 8d6:	dc 01       	movw	r26, r24
 8d8:	2c 91       	ld	r18, X
 8da:	26 95       	lsr	r18
 8dc:	26 95       	lsr	r18
 8de:	26 95       	lsr	r18
 8e0:	27 70       	andi	r18, 0x07	; 7
 8e2:	ec 91       	ld	r30, X
 8e4:	e7 70       	andi	r30, 0x07	; 7
 8e6:	f0 e0       	ldi	r31, 0x00	; 0
 8e8:	ee 0f       	add	r30, r30
 8ea:	ff 1f       	adc	r31, r31
 8ec:	ea 5e       	subi	r30, 0xEA	; 234
 8ee:	fe 4f       	sbci	r31, 0xFE	; 254
 8f0:	01 90       	ld	r0, Z+
 8f2:	f0 81       	ld	r31, Z
 8f4:	e0 2d       	mov	r30, r0
 8f6:	80 81       	ld	r24, Z
 8f8:	90 e0       	ldi	r25, 0x00	; 0
 8fa:	02 c0       	rjmp	.+4      	; 0x900 <GPIO_pin_read_logic+0x34>
 8fc:	95 95       	asr	r25
 8fe:	87 95       	ror	r24
 900:	2a 95       	dec	r18
 902:	e2 f7       	brpl	.-8      	; 0x8fc <GPIO_pin_read_logic+0x30>
 904:	81 70       	andi	r24, 0x01	; 1
 906:	fb 01       	movw	r30, r22
 908:	80 83       	st	Z, r24
 90a:	81 e0       	ldi	r24, 0x01	; 1
 90c:	08 95       	ret
 90e:	80 e0       	ldi	r24, 0x00	; 0
 910:	08 95       	ret
 912:	80 e0       	ldi	r24, 0x00	; 0
 914:	08 95       	ret

00000916 <GPIO_pin_intialize>:
Std_ReturnType GPIO_pin_intialize(const ST_pin_config_t *_pin_config)
{
 916:	cf 93       	push	r28
 918:	df 93       	push	r29
    Std_ReturnType ret = E_NOT_OK;

    if(PTR_NULL == _pin_config)
 91a:	00 97       	sbiw	r24, 0x00	; 0
 91c:	59 f0       	breq	.+22     	; 0x934 <GPIO_pin_intialize+0x1e>
 91e:	ec 01       	movw	r28, r24
    {
        ret = E_NOT_OK;
    }
    else
    {
       ret = GPIO_pin_direction_intialize(_pin_config);
 920:	0e 94 e5 03 	call	0x7ca	; 0x7ca <GPIO_pin_direction_intialize>
       ret = GPIO_pin_write_logic(_pin_config,_pin_config->logic);
 924:	68 81       	ld	r22, Y
 926:	67 fb       	bst	r22, 7
 928:	66 27       	eor	r22, r22
 92a:	60 f9       	bld	r22, 0
 92c:	ce 01       	movw	r24, r28
 92e:	0e 94 26 04 	call	0x84c	; 0x84c <GPIO_pin_write_logic>
 932:	01 c0       	rjmp	.+2      	; 0x936 <GPIO_pin_intialize+0x20>
{
    Std_ReturnType ret = E_NOT_OK;

    if(PTR_NULL == _pin_config)
    {
        ret = E_NOT_OK;
 934:	80 e0       	ldi	r24, 0x00	; 0
    {
       ret = GPIO_pin_direction_intialize(_pin_config);
       ret = GPIO_pin_write_logic(_pin_config,_pin_config->logic);
    }
    return ret;
}
 936:	df 91       	pop	r29
 938:	cf 91       	pop	r28
 93a:	08 95       	ret

0000093c <EXT0_INTERRUPT_SetInterruptHandler>:
			break;
		}
		}
	}
	return ret;
}
 93c:	00 97       	sbiw	r24, 0x00	; 0
 93e:	31 f0       	breq	.+12     	; 0x94c <EXT0_INTERRUPT_SetInterruptHandler+0x10>
 940:	90 93 35 01 	sts	0x0135, r25	; 0x800135 <INT0_InterruptHandler+0x1>
 944:	80 93 34 01 	sts	0x0134, r24	; 0x800134 <INT0_InterruptHandler>
 948:	81 e0       	ldi	r24, 0x01	; 1
 94a:	08 95       	ret
 94c:	80 e0       	ldi	r24, 0x00	; 0
 94e:	08 95       	ret

00000950 <EXT1_INTERRUPT_SetInterruptHandler>:
 950:	00 97       	sbiw	r24, 0x00	; 0
 952:	31 f0       	breq	.+12     	; 0x960 <EXT1_INTERRUPT_SetInterruptHandler+0x10>
 954:	90 93 33 01 	sts	0x0133, r25	; 0x800133 <INT1_InterruptHandler+0x1>
 958:	80 93 32 01 	sts	0x0132, r24	; 0x800132 <INT1_InterruptHandler>
 95c:	81 e0       	ldi	r24, 0x01	; 1
 95e:	08 95       	ret
 960:	80 e0       	ldi	r24, 0x00	; 0
 962:	08 95       	ret

00000964 <EXT2_INTERRUPT_SetInterruptHandler>:
 964:	00 97       	sbiw	r24, 0x00	; 0
 966:	31 f0       	breq	.+12     	; 0x974 <EXT2_INTERRUPT_SetInterruptHandler+0x10>
 968:	90 93 31 01 	sts	0x0131, r25	; 0x800131 <INT2_InterruptHandler+0x1>
 96c:	80 93 30 01 	sts	0x0130, r24	; 0x800130 <INT2_InterruptHandler>
 970:	81 e0       	ldi	r24, 0x01	; 1
 972:	08 95       	ret
 974:	80 e0       	ldi	r24, 0x00	; 0
 976:	08 95       	ret

00000978 <EXT_vINTERRUPT_Init>:
 978:	00 97       	sbiw	r24, 0x00	; 0
 97a:	09 f4       	brne	.+2      	; 0x97e <EXT_vINTERRUPT_Init+0x6>
 97c:	89 c0       	rjmp	.+274    	; 0xa90 <EXT_vINTERRUPT_Init+0x118>
 97e:	fc 01       	movw	r30, r24
 980:	82 81       	ldd	r24, Z+2	; 0x02
 982:	81 30       	cpi	r24, 0x01	; 1
 984:	c9 f1       	breq	.+114    	; 0x9f8 <EXT_vINTERRUPT_Init+0x80>
 986:	20 f0       	brcs	.+8      	; 0x990 <EXT_vINTERRUPT_Init+0x18>
 988:	82 30       	cpi	r24, 0x02	; 2
 98a:	09 f4       	brne	.+2      	; 0x98e <EXT_vINTERRUPT_Init+0x16>
 98c:	68 c0       	rjmp	.+208    	; 0xa5e <EXT_vINTERRUPT_Init+0xe6>
 98e:	82 c0       	rjmp	.+260    	; 0xa94 <EXT_vINTERRUPT_Init+0x11c>
 990:	83 81       	ldd	r24, Z+3	; 0x03
 992:	81 11       	cpse	r24, r1
 994:	0a c0       	rjmp	.+20     	; 0x9aa <EXT_vINTERRUPT_Init+0x32>
 996:	0e 94 e4 05 	call	0xbc8	; 0xbc8 <MCU_vEnableInterrupt>
 99a:	8b b7       	in	r24, 0x3b	; 59
 99c:	80 64       	ori	r24, 0x40	; 64
 99e:	8b bf       	out	0x3b, r24	; 59
 9a0:	85 b7       	in	r24, 0x35	; 53
 9a2:	8c 7f       	andi	r24, 0xFC	; 252
 9a4:	85 bf       	out	0x35, r24	; 53
 9a6:	81 e0       	ldi	r24, 0x01	; 1
 9a8:	08 95       	ret
 9aa:	81 30       	cpi	r24, 0x01	; 1
 9ac:	59 f4       	brne	.+22     	; 0x9c4 <EXT_vINTERRUPT_Init+0x4c>
 9ae:	0e 94 e4 05 	call	0xbc8	; 0xbc8 <MCU_vEnableInterrupt>
 9b2:	8b b7       	in	r24, 0x3b	; 59
 9b4:	80 64       	ori	r24, 0x40	; 64
 9b6:	8b bf       	out	0x3b, r24	; 59
 9b8:	85 b7       	in	r24, 0x35	; 53
 9ba:	8d 7f       	andi	r24, 0xFD	; 253
 9bc:	81 60       	ori	r24, 0x01	; 1
 9be:	85 bf       	out	0x35, r24	; 53
 9c0:	81 e0       	ldi	r24, 0x01	; 1
 9c2:	08 95       	ret
 9c4:	82 30       	cpi	r24, 0x02	; 2
 9c6:	59 f4       	brne	.+22     	; 0x9de <EXT_vINTERRUPT_Init+0x66>
 9c8:	0e 94 e4 05 	call	0xbc8	; 0xbc8 <MCU_vEnableInterrupt>
 9cc:	8b b7       	in	r24, 0x3b	; 59
 9ce:	80 64       	ori	r24, 0x40	; 64
 9d0:	8b bf       	out	0x3b, r24	; 59
 9d2:	85 b7       	in	r24, 0x35	; 53
 9d4:	82 60       	ori	r24, 0x02	; 2
 9d6:	8e 7f       	andi	r24, 0xFE	; 254
 9d8:	85 bf       	out	0x35, r24	; 53
 9da:	81 e0       	ldi	r24, 0x01	; 1
 9dc:	08 95       	ret
 9de:	83 30       	cpi	r24, 0x03	; 3
 9e0:	09 f0       	breq	.+2      	; 0x9e4 <EXT_vINTERRUPT_Init+0x6c>
 9e2:	5a c0       	rjmp	.+180    	; 0xa98 <EXT_vINTERRUPT_Init+0x120>
 9e4:	0e 94 e4 05 	call	0xbc8	; 0xbc8 <MCU_vEnableInterrupt>
 9e8:	8b b7       	in	r24, 0x3b	; 59
 9ea:	80 64       	ori	r24, 0x40	; 64
 9ec:	8b bf       	out	0x3b, r24	; 59
 9ee:	85 b7       	in	r24, 0x35	; 53
 9f0:	83 60       	ori	r24, 0x03	; 3
 9f2:	85 bf       	out	0x35, r24	; 53
 9f4:	81 e0       	ldi	r24, 0x01	; 1
 9f6:	08 95       	ret
 9f8:	83 81       	ldd	r24, Z+3	; 0x03
 9fa:	81 11       	cpse	r24, r1
 9fc:	0a c0       	rjmp	.+20     	; 0xa12 <EXT_vINTERRUPT_Init+0x9a>
 9fe:	0e 94 e4 05 	call	0xbc8	; 0xbc8 <MCU_vEnableInterrupt>
 a02:	8b b7       	in	r24, 0x3b	; 59
 a04:	80 68       	ori	r24, 0x80	; 128
 a06:	8b bf       	out	0x3b, r24	; 59
 a08:	85 b7       	in	r24, 0x35	; 53
 a0a:	83 7f       	andi	r24, 0xF3	; 243
 a0c:	85 bf       	out	0x35, r24	; 53
 a0e:	81 e0       	ldi	r24, 0x01	; 1
 a10:	08 95       	ret
 a12:	81 30       	cpi	r24, 0x01	; 1
 a14:	59 f4       	brne	.+22     	; 0xa2c <EXT_vINTERRUPT_Init+0xb4>
 a16:	0e 94 e4 05 	call	0xbc8	; 0xbc8 <MCU_vEnableInterrupt>
 a1a:	8b b7       	in	r24, 0x3b	; 59
 a1c:	80 68       	ori	r24, 0x80	; 128
 a1e:	8b bf       	out	0x3b, r24	; 59
 a20:	85 b7       	in	r24, 0x35	; 53
 a22:	87 7f       	andi	r24, 0xF7	; 247
 a24:	84 60       	ori	r24, 0x04	; 4
 a26:	85 bf       	out	0x35, r24	; 53
 a28:	81 e0       	ldi	r24, 0x01	; 1
 a2a:	08 95       	ret
 a2c:	82 30       	cpi	r24, 0x02	; 2
 a2e:	59 f4       	brne	.+22     	; 0xa46 <EXT_vINTERRUPT_Init+0xce>
 a30:	0e 94 e4 05 	call	0xbc8	; 0xbc8 <MCU_vEnableInterrupt>
 a34:	8b b7       	in	r24, 0x3b	; 59
 a36:	80 68       	ori	r24, 0x80	; 128
 a38:	8b bf       	out	0x3b, r24	; 59
 a3a:	85 b7       	in	r24, 0x35	; 53
 a3c:	88 60       	ori	r24, 0x08	; 8
 a3e:	8b 7f       	andi	r24, 0xFB	; 251
 a40:	85 bf       	out	0x35, r24	; 53
 a42:	81 e0       	ldi	r24, 0x01	; 1
 a44:	08 95       	ret
 a46:	83 30       	cpi	r24, 0x03	; 3
 a48:	49 f5       	brne	.+82     	; 0xa9c <EXT_vINTERRUPT_Init+0x124>
 a4a:	0e 94 e4 05 	call	0xbc8	; 0xbc8 <MCU_vEnableInterrupt>
 a4e:	8b b7       	in	r24, 0x3b	; 59
 a50:	80 68       	ori	r24, 0x80	; 128
 a52:	8b bf       	out	0x3b, r24	; 59
 a54:	85 b7       	in	r24, 0x35	; 53
 a56:	8c 60       	ori	r24, 0x0C	; 12
 a58:	85 bf       	out	0x35, r24	; 53
 a5a:	81 e0       	ldi	r24, 0x01	; 1
 a5c:	08 95       	ret
 a5e:	83 81       	ldd	r24, Z+3	; 0x03
 a60:	82 30       	cpi	r24, 0x02	; 2
 a62:	51 f4       	brne	.+20     	; 0xa78 <EXT_vINTERRUPT_Init+0x100>
 a64:	0e 94 e4 05 	call	0xbc8	; 0xbc8 <MCU_vEnableInterrupt>
 a68:	8b b7       	in	r24, 0x3b	; 59
 a6a:	80 62       	ori	r24, 0x20	; 32
 a6c:	8b bf       	out	0x3b, r24	; 59
 a6e:	84 b7       	in	r24, 0x34	; 52
 a70:	8f 7b       	andi	r24, 0xBF	; 191
 a72:	84 bf       	out	0x34, r24	; 52
 a74:	81 e0       	ldi	r24, 0x01	; 1
 a76:	08 95       	ret
 a78:	83 30       	cpi	r24, 0x03	; 3
 a7a:	91 f4       	brne	.+36     	; 0xaa0 <EXT_vINTERRUPT_Init+0x128>
 a7c:	0e 94 e4 05 	call	0xbc8	; 0xbc8 <MCU_vEnableInterrupt>
 a80:	8b b7       	in	r24, 0x3b	; 59
 a82:	80 62       	ori	r24, 0x20	; 32
 a84:	8b bf       	out	0x3b, r24	; 59
 a86:	84 b7       	in	r24, 0x34	; 52
 a88:	80 64       	ori	r24, 0x40	; 64
 a8a:	84 bf       	out	0x34, r24	; 52
 a8c:	81 e0       	ldi	r24, 0x01	; 1
 a8e:	08 95       	ret
 a90:	80 e0       	ldi	r24, 0x00	; 0
 a92:	08 95       	ret
 a94:	80 e0       	ldi	r24, 0x00	; 0
 a96:	08 95       	ret
 a98:	80 e0       	ldi	r24, 0x00	; 0
 a9a:	08 95       	ret
 a9c:	80 e0       	ldi	r24, 0x00	; 0
 a9e:	08 95       	ret
 aa0:	80 e0       	ldi	r24, 0x00	; 0
 aa2:	08 95       	ret

00000aa4 <EXT_INTERRUPT_SetInterruptHandler>:

Std_ReturnType EXT_INTERRUPT_SetInterruptHandler(const ST_EXT_INTERRUPTS_CFG *EXT_INTx)
{

    Std_ReturnType ret = E_NOT_OK;
    if(PTR_NULL == EXT_INTx)
 aa4:	00 97       	sbiw	r24, 0x00	; 0
 aa6:	b9 f0       	breq	.+46     	; 0xad6 <EXT_INTERRUPT_SetInterruptHandler+0x32>
 aa8:	fc 01       	movw	r30, r24
    {
        ret = E_NOT_OK;
    }
    else
    {
       switch(EXT_INTx->EXTERNAL_INTERRUPRT_Number)
 aaa:	82 81       	ldd	r24, Z+2	; 0x02
 aac:	81 30       	cpi	r24, 0x01	; 1
 aae:	49 f0       	breq	.+18     	; 0xac2 <EXT_INTERRUPT_SetInterruptHandler+0x1e>
 ab0:	18 f0       	brcs	.+6      	; 0xab8 <EXT_INTERRUPT_SetInterruptHandler+0x14>
 ab2:	82 30       	cpi	r24, 0x02	; 2
 ab4:	59 f0       	breq	.+22     	; 0xacc <EXT_INTERRUPT_SetInterruptHandler+0x28>
 ab6:	11 c0       	rjmp	.+34     	; 0xada <EXT_INTERRUPT_SetInterruptHandler+0x36>
        {
           case EXT0_INTERRUPTS:
            {
                ret = EXT0_INTERRUPT_SetInterruptHandler(EXT_INTx->INTERRUPT_EXTERNAL_HANDLER);
 ab8:	80 81       	ld	r24, Z
 aba:	91 81       	ldd	r25, Z+1	; 0x01
 abc:	0e 94 9e 04 	call	0x93c	; 0x93c <EXT0_INTERRUPT_SetInterruptHandler>
                break;
 ac0:	08 95       	ret
            }
           case EXT1_INTERRUPTS:
            {
                ret = EXT1_INTERRUPT_SetInterruptHandler(EXT_INTx->INTERRUPT_EXTERNAL_HANDLER);
 ac2:	80 81       	ld	r24, Z
 ac4:	91 81       	ldd	r25, Z+1	; 0x01
 ac6:	0e 94 a8 04 	call	0x950	; 0x950 <EXT1_INTERRUPT_SetInterruptHandler>
                break;
 aca:	08 95       	ret
            }
           case EXT2_INTERRUPTS:
            {
                ret = EXT2_INTERRUPT_SetInterruptHandler(EXT_INTx->INTERRUPT_EXTERNAL_HANDLER);
 acc:	80 81       	ld	r24, Z
 ace:	91 81       	ldd	r25, Z+1	; 0x01
 ad0:	0e 94 b2 04 	call	0x964	; 0x964 <EXT2_INTERRUPT_SetInterruptHandler>
                break;
 ad4:	08 95       	ret
{

    Std_ReturnType ret = E_NOT_OK;
    if(PTR_NULL == EXT_INTx)
    {
        ret = E_NOT_OK;
 ad6:	80 e0       	ldi	r24, 0x00	; 0
 ad8:	08 95       	ret
}

Std_ReturnType EXT_INTERRUPT_SetInterruptHandler(const ST_EXT_INTERRUPTS_CFG *EXT_INTx)
{

    Std_ReturnType ret = E_NOT_OK;
 ada:	80 e0       	ldi	r24, 0x00	; 0
                break;
            }
        }
    }
    return ret;
}
 adc:	08 95       	ret

00000ade <__vector_1>:



ISR(EXT_INT_0)
{
 ade:	1f 92       	push	r1
 ae0:	0f 92       	push	r0
 ae2:	0f b6       	in	r0, 0x3f	; 63
 ae4:	0f 92       	push	r0
 ae6:	11 24       	eor	r1, r1
 ae8:	2f 93       	push	r18
 aea:	3f 93       	push	r19
 aec:	4f 93       	push	r20
 aee:	5f 93       	push	r21
 af0:	6f 93       	push	r22
 af2:	7f 93       	push	r23
 af4:	8f 93       	push	r24
 af6:	9f 93       	push	r25
 af8:	af 93       	push	r26
 afa:	bf 93       	push	r27
 afc:	ef 93       	push	r30
 afe:	ff 93       	push	r31
	INT0_InterruptHandler();
 b00:	e0 91 34 01 	lds	r30, 0x0134	; 0x800134 <INT0_InterruptHandler>
 b04:	f0 91 35 01 	lds	r31, 0x0135	; 0x800135 <INT0_InterruptHandler+0x1>
 b08:	09 95       	icall
}
 b0a:	ff 91       	pop	r31
 b0c:	ef 91       	pop	r30
 b0e:	bf 91       	pop	r27
 b10:	af 91       	pop	r26
 b12:	9f 91       	pop	r25
 b14:	8f 91       	pop	r24
 b16:	7f 91       	pop	r23
 b18:	6f 91       	pop	r22
 b1a:	5f 91       	pop	r21
 b1c:	4f 91       	pop	r20
 b1e:	3f 91       	pop	r19
 b20:	2f 91       	pop	r18
 b22:	0f 90       	pop	r0
 b24:	0f be       	out	0x3f, r0	; 63
 b26:	0f 90       	pop	r0
 b28:	1f 90       	pop	r1
 b2a:	18 95       	reti

00000b2c <__vector_2>:
ISR(EXT_INT_1)
{
 b2c:	1f 92       	push	r1
 b2e:	0f 92       	push	r0
 b30:	0f b6       	in	r0, 0x3f	; 63
 b32:	0f 92       	push	r0
 b34:	11 24       	eor	r1, r1
 b36:	2f 93       	push	r18
 b38:	3f 93       	push	r19
 b3a:	4f 93       	push	r20
 b3c:	5f 93       	push	r21
 b3e:	6f 93       	push	r22
 b40:	7f 93       	push	r23
 b42:	8f 93       	push	r24
 b44:	9f 93       	push	r25
 b46:	af 93       	push	r26
 b48:	bf 93       	push	r27
 b4a:	ef 93       	push	r30
 b4c:	ff 93       	push	r31
	INT1_InterruptHandler();
 b4e:	e0 91 32 01 	lds	r30, 0x0132	; 0x800132 <INT1_InterruptHandler>
 b52:	f0 91 33 01 	lds	r31, 0x0133	; 0x800133 <INT1_InterruptHandler+0x1>
 b56:	09 95       	icall
}
 b58:	ff 91       	pop	r31
 b5a:	ef 91       	pop	r30
 b5c:	bf 91       	pop	r27
 b5e:	af 91       	pop	r26
 b60:	9f 91       	pop	r25
 b62:	8f 91       	pop	r24
 b64:	7f 91       	pop	r23
 b66:	6f 91       	pop	r22
 b68:	5f 91       	pop	r21
 b6a:	4f 91       	pop	r20
 b6c:	3f 91       	pop	r19
 b6e:	2f 91       	pop	r18
 b70:	0f 90       	pop	r0
 b72:	0f be       	out	0x3f, r0	; 63
 b74:	0f 90       	pop	r0
 b76:	1f 90       	pop	r1
 b78:	18 95       	reti

00000b7a <__vector_3>:
ISR(EXT_INT_2)
{
 b7a:	1f 92       	push	r1
 b7c:	0f 92       	push	r0
 b7e:	0f b6       	in	r0, 0x3f	; 63
 b80:	0f 92       	push	r0
 b82:	11 24       	eor	r1, r1
 b84:	2f 93       	push	r18
 b86:	3f 93       	push	r19
 b88:	4f 93       	push	r20
 b8a:	5f 93       	push	r21
 b8c:	6f 93       	push	r22
 b8e:	7f 93       	push	r23
 b90:	8f 93       	push	r24
 b92:	9f 93       	push	r25
 b94:	af 93       	push	r26
 b96:	bf 93       	push	r27
 b98:	ef 93       	push	r30
 b9a:	ff 93       	push	r31
	INT2_InterruptHandler();
 b9c:	e0 91 30 01 	lds	r30, 0x0130	; 0x800130 <INT2_InterruptHandler>
 ba0:	f0 91 31 01 	lds	r31, 0x0131	; 0x800131 <INT2_InterruptHandler+0x1>
 ba4:	09 95       	icall
}
 ba6:	ff 91       	pop	r31
 ba8:	ef 91       	pop	r30
 baa:	bf 91       	pop	r27
 bac:	af 91       	pop	r26
 bae:	9f 91       	pop	r25
 bb0:	8f 91       	pop	r24
 bb2:	7f 91       	pop	r23
 bb4:	6f 91       	pop	r22
 bb6:	5f 91       	pop	r21
 bb8:	4f 91       	pop	r20
 bba:	3f 91       	pop	r19
 bbc:	2f 91       	pop	r18
 bbe:	0f 90       	pop	r0
 bc0:	0f be       	out	0x3f, r0	; 63
 bc2:	0f 90       	pop	r0
 bc4:	1f 90       	pop	r1
 bc6:	18 95       	reti

00000bc8 <MCU_vEnableInterrupt>:

#include"MCU_Interface.h"

void MCU_vEnableInterrupt(void)
{
	SET_BIT(SREG_REG,7);
 bc8:	8f b7       	in	r24, 0x3f	; 63
 bca:	80 68       	ori	r24, 0x80	; 128
 bcc:	8f bf       	out	0x3f, r24	; 63
 bce:	08 95       	ret

00000bd0 <timer0_set_ovf_isr>:
	

	while(g_u64_polling_counter != 1);
	g_u64_polling_counter = 0;
	
}
 bd0:	00 97       	sbiw	r24, 0x00	; 0
 bd2:	31 f0       	breq	.+12     	; 0xbe0 <timer0_set_ovf_isr+0x10>
 bd4:	90 93 41 01 	sts	0x0141, r25	; 0x800141 <ptr_func_overflow_isr+0x1>
 bd8:	80 93 40 01 	sts	0x0140, r24	; 0x800140 <ptr_func_overflow_isr>
 bdc:	8b e0       	ldi	r24, 0x0B	; 11
 bde:	08 95       	ret
 be0:	8c e0       	ldi	r24, 0x0C	; 12
 be2:	08 95       	ret

00000be4 <timer0_set_ctc_isr>:
 be4:	00 97       	sbiw	r24, 0x00	; 0
 be6:	31 f0       	breq	.+12     	; 0xbf4 <timer0_set_ctc_isr+0x10>
 be8:	90 93 3f 01 	sts	0x013F, r25	; 0x80013f <ptr_func_ctc_isr+0x1>
 bec:	80 93 3e 01 	sts	0x013E, r24	; 0x80013e <ptr_func_ctc_isr>
 bf0:	8d e0       	ldi	r24, 0x0D	; 13
 bf2:	08 95       	ret
 bf4:	8e e0       	ldi	r24, 0x0E	; 14
 bf6:	08 95       	ret

00000bf8 <TIMER0_init>:
 bf8:	cf 93       	push	r28
 bfa:	df 93       	push	r29
 bfc:	dc 01       	movw	r26, r24
 bfe:	89 2b       	or	r24, r25
 c00:	09 f4       	brne	.+2      	; 0xc04 <TIMER0_init+0xc>
 c02:	aa c0       	rjmp	.+340    	; 0xd58 <TIMER0_init+0x160>
 c04:	8c 91       	ld	r24, X
 c06:	81 30       	cpi	r24, 0x01	; 1
 c08:	89 f0       	breq	.+34     	; 0xc2c <TIMER0_init+0x34>
 c0a:	28 f0       	brcs	.+10     	; 0xc16 <TIMER0_init+0x1e>
 c0c:	82 30       	cpi	r24, 0x02	; 2
 c0e:	41 f0       	breq	.+16     	; 0xc20 <TIMER0_init+0x28>
 c10:	83 30       	cpi	r24, 0x03	; 3
 c12:	91 f0       	breq	.+36     	; 0xc38 <TIMER0_init+0x40>
 c14:	16 c0       	rjmp	.+44     	; 0xc42 <TIMER0_init+0x4a>
 c16:	83 b7       	in	r24, 0x33	; 51
 c18:	87 7b       	andi	r24, 0xB7	; 183
 c1a:	83 bf       	out	0x33, r24	; 51
 c1c:	83 e0       	ldi	r24, 0x03	; 3
 c1e:	12 c0       	rjmp	.+36     	; 0xc44 <TIMER0_init+0x4c>
 c20:	83 b7       	in	r24, 0x33	; 51
 c22:	87 7f       	andi	r24, 0xF7	; 247
 c24:	80 64       	ori	r24, 0x40	; 64
 c26:	83 bf       	out	0x33, r24	; 51
 c28:	83 e0       	ldi	r24, 0x03	; 3
 c2a:	0c c0       	rjmp	.+24     	; 0xc44 <TIMER0_init+0x4c>
 c2c:	83 b7       	in	r24, 0x33	; 51
 c2e:	88 60       	ori	r24, 0x08	; 8
 c30:	8f 7b       	andi	r24, 0xBF	; 191
 c32:	83 bf       	out	0x33, r24	; 51
 c34:	83 e0       	ldi	r24, 0x03	; 3
 c36:	06 c0       	rjmp	.+12     	; 0xc44 <TIMER0_init+0x4c>
 c38:	83 b7       	in	r24, 0x33	; 51
 c3a:	88 64       	ori	r24, 0x48	; 72
 c3c:	83 bf       	out	0x33, r24	; 51
 c3e:	83 e0       	ldi	r24, 0x03	; 3
 c40:	01 c0       	rjmp	.+2      	; 0xc44 <TIMER0_init+0x4c>
 c42:	84 e0       	ldi	r24, 0x04	; 4
 c44:	83 30       	cpi	r24, 0x03	; 3
 c46:	d1 f5       	brne	.+116    	; 0xcbc <TIMER0_init+0xc4>
 c48:	12 96       	adiw	r26, 0x02	; 2
 c4a:	ec 91       	ld	r30, X
 c4c:	12 97       	sbiw	r26, 0x02	; 2
 c4e:	4e 2f       	mov	r20, r30
 c50:	50 e0       	ldi	r21, 0x00	; 0
 c52:	48 30       	cpi	r20, 0x08	; 8
 c54:	51 05       	cpc	r21, r1
 c56:	88 f5       	brcc	.+98     	; 0xcba <TIMER0_init+0xc2>
 c58:	fa 01       	movw	r30, r20
 c5a:	ee 5b       	subi	r30, 0xBE	; 190
 c5c:	ff 4f       	sbci	r31, 0xFF	; 255
 c5e:	0c 94 ec 07 	jmp	0xfd8	; 0xfd8 <__tablejump2__>
 c62:	83 b7       	in	r24, 0x33	; 51
 c64:	8f 7c       	andi	r24, 0xCF	; 207
 c66:	83 bf       	out	0x33, r24	; 51
 c68:	85 e0       	ldi	r24, 0x05	; 5
 c6a:	28 c0       	rjmp	.+80     	; 0xcbc <TIMER0_init+0xc4>
 c6c:	83 b7       	in	r24, 0x33	; 51
 c6e:	8f 7d       	andi	r24, 0xDF	; 223
 c70:	80 61       	ori	r24, 0x10	; 16
 c72:	83 bf       	out	0x33, r24	; 51
 c74:	85 e0       	ldi	r24, 0x05	; 5
 c76:	22 c0       	rjmp	.+68     	; 0xcbc <TIMER0_init+0xc4>
 c78:	83 b7       	in	r24, 0x33	; 51
 c7a:	80 62       	ori	r24, 0x20	; 32
 c7c:	8f 7e       	andi	r24, 0xEF	; 239
 c7e:	83 bf       	out	0x33, r24	; 51
 c80:	85 e0       	ldi	r24, 0x05	; 5
 c82:	1c c0       	rjmp	.+56     	; 0xcbc <TIMER0_init+0xc4>
 c84:	83 b7       	in	r24, 0x33	; 51
 c86:	80 63       	ori	r24, 0x30	; 48
 c88:	83 bf       	out	0x33, r24	; 51
 c8a:	85 e0       	ldi	r24, 0x05	; 5
 c8c:	17 c0       	rjmp	.+46     	; 0xcbc <TIMER0_init+0xc4>
 c8e:	83 b7       	in	r24, 0x33	; 51
 c90:	80 62       	ori	r24, 0x20	; 32
 c92:	8f 7e       	andi	r24, 0xEF	; 239
 c94:	83 bf       	out	0x33, r24	; 51
 c96:	85 e0       	ldi	r24, 0x05	; 5
 c98:	11 c0       	rjmp	.+34     	; 0xcbc <TIMER0_init+0xc4>
 c9a:	83 b7       	in	r24, 0x33	; 51
 c9c:	80 63       	ori	r24, 0x30	; 48
 c9e:	83 bf       	out	0x33, r24	; 51
 ca0:	85 e0       	ldi	r24, 0x05	; 5
 ca2:	0c c0       	rjmp	.+24     	; 0xcbc <TIMER0_init+0xc4>
 ca4:	83 b7       	in	r24, 0x33	; 51
 ca6:	80 62       	ori	r24, 0x20	; 32
 ca8:	8f 7e       	andi	r24, 0xEF	; 239
 caa:	83 bf       	out	0x33, r24	; 51
 cac:	85 e0       	ldi	r24, 0x05	; 5
 cae:	06 c0       	rjmp	.+12     	; 0xcbc <TIMER0_init+0xc4>
 cb0:	83 b7       	in	r24, 0x33	; 51
 cb2:	80 63       	ori	r24, 0x30	; 48
 cb4:	83 bf       	out	0x33, r24	; 51
 cb6:	85 e0       	ldi	r24, 0x05	; 5
 cb8:	01 c0       	rjmp	.+2      	; 0xcbc <TIMER0_init+0xc4>
 cba:	86 e0       	ldi	r24, 0x06	; 6
 cbc:	ed 01       	movw	r28, r26
 cbe:	85 30       	cpi	r24, 0x05	; 5
 cc0:	79 f5       	brne	.+94     	; 0xd20 <TIMER0_init+0x128>
 cc2:	8b 81       	ldd	r24, Y+3	; 0x03
 cc4:	88 23       	and	r24, r24
 cc6:	19 f0       	breq	.+6      	; 0xcce <TIMER0_init+0xd6>
 cc8:	81 30       	cpi	r24, 0x01	; 1
 cca:	a9 f0       	breq	.+42     	; 0xcf6 <TIMER0_init+0xfe>
 ccc:	24 c0       	rjmp	.+72     	; 0xd16 <TIMER0_init+0x11e>
 cce:	88 81       	ld	r24, Y
 cd0:	88 23       	and	r24, r24
 cd2:	19 f0       	breq	.+6      	; 0xcda <TIMER0_init+0xe2>
 cd4:	81 30       	cpi	r24, 0x01	; 1
 cd6:	41 f0       	breq	.+16     	; 0xce8 <TIMER0_init+0xf0>
 cd8:	20 c0       	rjmp	.+64     	; 0xd1a <TIMER0_init+0x122>
 cda:	0e 94 e4 05 	call	0xbc8	; 0xbc8 <MCU_vEnableInterrupt>
 cde:	89 b7       	in	r24, 0x39	; 57
 ce0:	81 60       	ori	r24, 0x01	; 1
 ce2:	89 bf       	out	0x39, r24	; 57
 ce4:	87 e0       	ldi	r24, 0x07	; 7
 ce6:	1c c0       	rjmp	.+56     	; 0xd20 <TIMER0_init+0x128>
 ce8:	0e 94 e4 05 	call	0xbc8	; 0xbc8 <MCU_vEnableInterrupt>
 cec:	89 b7       	in	r24, 0x39	; 57
 cee:	82 60       	ori	r24, 0x02	; 2
 cf0:	89 bf       	out	0x39, r24	; 57
 cf2:	87 e0       	ldi	r24, 0x07	; 7
 cf4:	15 c0       	rjmp	.+42     	; 0xd20 <TIMER0_init+0x128>
 cf6:	88 81       	ld	r24, Y
 cf8:	88 23       	and	r24, r24
 cfa:	19 f0       	breq	.+6      	; 0xd02 <TIMER0_init+0x10a>
 cfc:	81 30       	cpi	r24, 0x01	; 1
 cfe:	31 f0       	breq	.+12     	; 0xd0c <TIMER0_init+0x114>
 d00:	0e c0       	rjmp	.+28     	; 0xd1e <TIMER0_init+0x126>
 d02:	89 b7       	in	r24, 0x39	; 57
 d04:	8e 7f       	andi	r24, 0xFE	; 254
 d06:	89 bf       	out	0x39, r24	; 57
 d08:	87 e0       	ldi	r24, 0x07	; 7
 d0a:	0a c0       	rjmp	.+20     	; 0xd20 <TIMER0_init+0x128>
 d0c:	89 b7       	in	r24, 0x39	; 57
 d0e:	8d 7f       	andi	r24, 0xFD	; 253
 d10:	89 bf       	out	0x39, r24	; 57
 d12:	87 e0       	ldi	r24, 0x07	; 7
 d14:	05 c0       	rjmp	.+10     	; 0xd20 <TIMER0_init+0x128>
 d16:	88 e0       	ldi	r24, 0x08	; 8
 d18:	03 c0       	rjmp	.+6      	; 0xd20 <TIMER0_init+0x128>
 d1a:	88 e0       	ldi	r24, 0x08	; 8
 d1c:	01 c0       	rjmp	.+2      	; 0xd20 <TIMER0_init+0x128>
 d1e:	88 e0       	ldi	r24, 0x08	; 8
 d20:	87 30       	cpi	r24, 0x07	; 7
 d22:	89 f4       	brne	.+34     	; 0xd46 <TIMER0_init+0x14e>
 d24:	88 81       	ld	r24, Y
 d26:	88 23       	and	r24, r24
 d28:	19 f0       	breq	.+6      	; 0xd30 <TIMER0_init+0x138>
 d2a:	81 30       	cpi	r24, 0x01	; 1
 d2c:	31 f0       	breq	.+12     	; 0xd3a <TIMER0_init+0x142>
 d2e:	0a c0       	rjmp	.+20     	; 0xd44 <TIMER0_init+0x14c>
 d30:	8c 81       	ldd	r24, Y+4	; 0x04
 d32:	9d 81       	ldd	r25, Y+5	; 0x05
 d34:	0e 94 e8 05 	call	0xbd0	; 0xbd0 <timer0_set_ovf_isr>
 d38:	06 c0       	rjmp	.+12     	; 0xd46 <TIMER0_init+0x14e>
 d3a:	8e 81       	ldd	r24, Y+6	; 0x06
 d3c:	9f 81       	ldd	r25, Y+7	; 0x07
 d3e:	0e 94 f2 05 	call	0xbe4	; 0xbe4 <timer0_set_ctc_isr>
 d42:	01 c0       	rjmp	.+2      	; 0xd46 <TIMER0_init+0x14e>
 d44:	8f e0       	ldi	r24, 0x0F	; 15
 d46:	8b 30       	cpi	r24, 0x0B	; 11
 d48:	11 f0       	breq	.+4      	; 0xd4e <TIMER0_init+0x156>
 d4a:	8d 30       	cpi	r24, 0x0D	; 13
 d4c:	31 f4       	brne	.+12     	; 0xd5a <TIMER0_init+0x162>
 d4e:	83 b7       	in	r24, 0x33	; 51
 d50:	88 7f       	andi	r24, 0xF8	; 248
 d52:	83 bf       	out	0x33, r24	; 51
 d54:	80 e0       	ldi	r24, 0x00	; 0
 d56:	01 c0       	rjmp	.+2      	; 0xd5a <TIMER0_init+0x162>
 d58:	82 e0       	ldi	r24, 0x02	; 2
 d5a:	df 91       	pop	r29
 d5c:	cf 91       	pop	r28
 d5e:	08 95       	ret

00000d60 <TIMER0_start>:
 d60:	00 97       	sbiw	r24, 0x00	; 0
 d62:	09 f4       	brne	.+2      	; 0xd66 <TIMER0_start+0x6>
 d64:	41 c0       	rjmp	.+130    	; 0xde8 <TIMER0_start+0x88>
 d66:	dc 01       	movw	r26, r24
 d68:	11 96       	adiw	r26, 0x01	; 1
 d6a:	ec 91       	ld	r30, X
 d6c:	8e 2f       	mov	r24, r30
 d6e:	90 e0       	ldi	r25, 0x00	; 0
 d70:	88 30       	cpi	r24, 0x08	; 8
 d72:	91 05       	cpc	r25, r1
 d74:	a8 f5       	brcc	.+106    	; 0xde0 <TIMER0_start+0x80>
 d76:	fc 01       	movw	r30, r24
 d78:	e6 5b       	subi	r30, 0xB6	; 182
 d7a:	ff 4f       	sbci	r31, 0xFF	; 255
 d7c:	0c 94 ec 07 	jmp	0xfd8	; 0xfd8 <__tablejump2__>
 d80:	83 b7       	in	r24, 0x33	; 51
 d82:	88 7f       	andi	r24, 0xF8	; 248
 d84:	83 bf       	out	0x33, r24	; 51
 d86:	89 e0       	ldi	r24, 0x09	; 9
 d88:	2c c0       	rjmp	.+88     	; 0xde2 <TIMER0_start+0x82>
 d8a:	83 b7       	in	r24, 0x33	; 51
 d8c:	89 7f       	andi	r24, 0xF9	; 249
 d8e:	81 60       	ori	r24, 0x01	; 1
 d90:	83 bf       	out	0x33, r24	; 51
 d92:	89 e0       	ldi	r24, 0x09	; 9
 d94:	26 c0       	rjmp	.+76     	; 0xde2 <TIMER0_start+0x82>
 d96:	83 b7       	in	r24, 0x33	; 51
 d98:	8b 7f       	andi	r24, 0xFB	; 251
 d9a:	82 60       	ori	r24, 0x02	; 2
 d9c:	8e 7f       	andi	r24, 0xFE	; 254
 d9e:	83 bf       	out	0x33, r24	; 51
 da0:	89 e0       	ldi	r24, 0x09	; 9
 da2:	1f c0       	rjmp	.+62     	; 0xde2 <TIMER0_start+0x82>
 da4:	83 b7       	in	r24, 0x33	; 51
 da6:	8b 7f       	andi	r24, 0xFB	; 251
 da8:	83 60       	ori	r24, 0x03	; 3
 daa:	83 bf       	out	0x33, r24	; 51
 dac:	89 e0       	ldi	r24, 0x09	; 9
 dae:	19 c0       	rjmp	.+50     	; 0xde2 <TIMER0_start+0x82>
 db0:	83 b7       	in	r24, 0x33	; 51
 db2:	84 60       	ori	r24, 0x04	; 4
 db4:	8c 7f       	andi	r24, 0xFC	; 252
 db6:	83 bf       	out	0x33, r24	; 51
 db8:	89 e0       	ldi	r24, 0x09	; 9
 dba:	13 c0       	rjmp	.+38     	; 0xde2 <TIMER0_start+0x82>
 dbc:	83 b7       	in	r24, 0x33	; 51
 dbe:	84 60       	ori	r24, 0x04	; 4
 dc0:	8d 7f       	andi	r24, 0xFD	; 253
 dc2:	81 60       	ori	r24, 0x01	; 1
 dc4:	83 bf       	out	0x33, r24	; 51
 dc6:	89 e0       	ldi	r24, 0x09	; 9
 dc8:	0c c0       	rjmp	.+24     	; 0xde2 <TIMER0_start+0x82>
 dca:	83 b7       	in	r24, 0x33	; 51
 dcc:	86 60       	ori	r24, 0x06	; 6
 dce:	8e 7f       	andi	r24, 0xFE	; 254
 dd0:	83 bf       	out	0x33, r24	; 51
 dd2:	89 e0       	ldi	r24, 0x09	; 9
 dd4:	06 c0       	rjmp	.+12     	; 0xde2 <TIMER0_start+0x82>
 dd6:	83 b7       	in	r24, 0x33	; 51
 dd8:	87 60       	ori	r24, 0x07	; 7
 dda:	83 bf       	out	0x33, r24	; 51
 ddc:	89 e0       	ldi	r24, 0x09	; 9
 dde:	01 c0       	rjmp	.+2      	; 0xde2 <TIMER0_start+0x82>
 de0:	8a e0       	ldi	r24, 0x0A	; 10
 de2:	89 30       	cpi	r24, 0x09	; 9
 de4:	21 f4       	brne	.+8      	; 0xdee <TIMER0_start+0x8e>
 de6:	02 c0       	rjmp	.+4      	; 0xdec <TIMER0_start+0x8c>
 de8:	82 e0       	ldi	r24, 0x02	; 2
 dea:	08 95       	ret
 dec:	80 e0       	ldi	r24, 0x00	; 0
 dee:	08 95       	ret

00000df0 <TIMER0_stop>:
 df0:	83 b7       	in	r24, 0x33	; 51
 df2:	88 7f       	andi	r24, 0xF8	; 248
 df4:	83 bf       	out	0x33, r24	; 51
 df6:	80 e0       	ldi	r24, 0x00	; 0
 df8:	08 95       	ret

00000dfa <TIMER0_delay_ms>:
 dfa:	0f 93       	push	r16
 dfc:	1f 93       	push	r17
 dfe:	dc 01       	movw	r26, r24
 e00:	cb 01       	movw	r24, r22
 e02:	88 0f       	add	r24, r24
 e04:	99 1f       	adc	r25, r25
 e06:	aa 1f       	adc	r26, r26
 e08:	bb 1f       	adc	r27, r27
 e0a:	88 0f       	add	r24, r24
 e0c:	99 1f       	adc	r25, r25
 e0e:	aa 1f       	adc	r26, r26
 e10:	bb 1f       	adc	r27, r27
 e12:	88 0f       	add	r24, r24
 e14:	99 1f       	adc	r25, r25
 e16:	aa 1f       	adc	r26, r26
 e18:	bb 1f       	adc	r27, r27
 e1a:	8c 01       	movw	r16, r24
 e1c:	9d 01       	movw	r18, r26
 e1e:	00 0f       	add	r16, r16
 e20:	11 1f       	adc	r17, r17
 e22:	22 1f       	adc	r18, r18
 e24:	33 1f       	adc	r19, r19
 e26:	00 0f       	add	r16, r16
 e28:	11 1f       	adc	r17, r17
 e2a:	22 1f       	adc	r18, r18
 e2c:	33 1f       	adc	r19, r19
 e2e:	80 0f       	add	r24, r16
 e30:	91 1f       	adc	r25, r17
 e32:	a2 1f       	adc	r26, r18
 e34:	b3 1f       	adc	r27, r19
 e36:	ac 01       	movw	r20, r24
 e38:	bd 01       	movw	r22, r26
 e3a:	44 0f       	add	r20, r20
 e3c:	55 1f       	adc	r21, r21
 e3e:	66 1f       	adc	r22, r22
 e40:	77 1f       	adc	r23, r23
 e42:	44 0f       	add	r20, r20
 e44:	55 1f       	adc	r21, r21
 e46:	66 1f       	adc	r22, r22
 e48:	77 1f       	adc	r23, r23
 e4a:	84 0f       	add	r24, r20
 e4c:	95 1f       	adc	r25, r21
 e4e:	a6 1f       	adc	r26, r22
 e50:	b7 1f       	adc	r27, r23
 e52:	ac 01       	movw	r20, r24
 e54:	bd 01       	movw	r22, r26
 e56:	44 0f       	add	r20, r20
 e58:	55 1f       	adc	r21, r21
 e5a:	66 1f       	adc	r22, r22
 e5c:	77 1f       	adc	r23, r23
 e5e:	44 0f       	add	r20, r20
 e60:	55 1f       	adc	r21, r21
 e62:	66 1f       	adc	r22, r22
 e64:	77 1f       	adc	r23, r23
 e66:	84 0f       	add	r24, r20
 e68:	95 1f       	adc	r25, r21
 e6a:	a6 1f       	adc	r26, r22
 e6c:	b7 1f       	adc	r27, r23
 e6e:	49 2f       	mov	r20, r25
 e70:	5a 2f       	mov	r21, r26
 e72:	6b 2f       	mov	r22, r27
 e74:	77 27       	eor	r23, r23
 e76:	40 93 42 01 	sts	0x0142, r20	; 0x800142 <g_u32_number_of_ovf>
 e7a:	50 93 43 01 	sts	0x0143, r21	; 0x800143 <g_u32_number_of_ovf+0x1>
 e7e:	60 93 44 01 	sts	0x0144, r22	; 0x800144 <g_u32_number_of_ovf+0x2>
 e82:	70 93 45 01 	sts	0x0145, r23	; 0x800145 <g_u32_number_of_ovf+0x3>
 e86:	99 27       	eor	r25, r25
 e88:	aa 27       	eor	r26, r26
 e8a:	bb 27       	eor	r27, r27
 e8c:	40 e0       	ldi	r20, 0x00	; 0
 e8e:	51 e0       	ldi	r21, 0x01	; 1
 e90:	60 e0       	ldi	r22, 0x00	; 0
 e92:	70 e0       	ldi	r23, 0x00	; 0
 e94:	8a 01       	movw	r16, r20
 e96:	9b 01       	movw	r18, r22
 e98:	08 1b       	sub	r16, r24
 e9a:	19 0b       	sbc	r17, r25
 e9c:	2a 0b       	sbc	r18, r26
 e9e:	3b 0b       	sbc	r19, r27
 ea0:	02 bf       	out	0x32, r16	; 50
 ea2:	80 91 42 01 	lds	r24, 0x0142	; 0x800142 <g_u32_number_of_ovf>
 ea6:	90 91 43 01 	lds	r25, 0x0143	; 0x800143 <g_u32_number_of_ovf+0x1>
 eaa:	a0 91 44 01 	lds	r26, 0x0144	; 0x800144 <g_u32_number_of_ovf+0x2>
 eae:	b0 91 45 01 	lds	r27, 0x0145	; 0x800145 <g_u32_number_of_ovf+0x3>
 eb2:	01 96       	adiw	r24, 0x01	; 1
 eb4:	a1 1d       	adc	r26, r1
 eb6:	b1 1d       	adc	r27, r1
 eb8:	80 93 42 01 	sts	0x0142, r24	; 0x800142 <g_u32_number_of_ovf>
 ebc:	90 93 43 01 	sts	0x0143, r25	; 0x800143 <g_u32_number_of_ovf+0x1>
 ec0:	a0 93 44 01 	sts	0x0144, r26	; 0x800144 <g_u32_number_of_ovf+0x2>
 ec4:	b0 93 45 01 	sts	0x0145, r27	; 0x800145 <g_u32_number_of_ovf+0x3>
 ec8:	1f 91       	pop	r17
 eca:	0f 91       	pop	r16
 ecc:	08 95       	ret

00000ece <__vector_11>:


ISR(TIM0_OVF_INT)
{
 ece:	1f 92       	push	r1
 ed0:	0f 92       	push	r0
 ed2:	0f b6       	in	r0, 0x3f	; 63
 ed4:	0f 92       	push	r0
 ed6:	11 24       	eor	r1, r1
 ed8:	2f 93       	push	r18
 eda:	3f 93       	push	r19
 edc:	4f 93       	push	r20
 ede:	5f 93       	push	r21
 ee0:	6f 93       	push	r22
 ee2:	7f 93       	push	r23
 ee4:	8f 93       	push	r24
 ee6:	9f 93       	push	r25
 ee8:	af 93       	push	r26
 eea:	bf 93       	push	r27
 eec:	ef 93       	push	r30
 eee:	ff 93       	push	r31
	if (enable_delay_ms == TIMER0_DELAY_ENABLE)
	{
			if(g_u32_isr_ovf_counter == g_u32_number_of_ovf)
 ef0:	80 91 36 01 	lds	r24, 0x0136	; 0x800136 <g_u32_isr_ovf_counter>
 ef4:	90 91 37 01 	lds	r25, 0x0137	; 0x800137 <g_u32_isr_ovf_counter+0x1>
 ef8:	a0 91 38 01 	lds	r26, 0x0138	; 0x800138 <g_u32_isr_ovf_counter+0x2>
 efc:	b0 91 39 01 	lds	r27, 0x0139	; 0x800139 <g_u32_isr_ovf_counter+0x3>
 f00:	40 91 42 01 	lds	r20, 0x0142	; 0x800142 <g_u32_number_of_ovf>
 f04:	50 91 43 01 	lds	r21, 0x0143	; 0x800143 <g_u32_number_of_ovf+0x1>
 f08:	60 91 44 01 	lds	r22, 0x0144	; 0x800144 <g_u32_number_of_ovf+0x2>
 f0c:	70 91 45 01 	lds	r23, 0x0145	; 0x800145 <g_u32_number_of_ovf+0x3>
 f10:	84 17       	cp	r24, r20
 f12:	95 07       	cpc	r25, r21
 f14:	a6 07       	cpc	r26, r22
 f16:	b7 07       	cpc	r27, r23
 f18:	e1 f4       	brne	.+56     	; 0xf52 <__vector_11+0x84>
			{
				ptr_func_overflow_isr();
 f1a:	e0 91 40 01 	lds	r30, 0x0140	; 0x800140 <ptr_func_overflow_isr>
 f1e:	f0 91 41 01 	lds	r31, 0x0141	; 0x800141 <ptr_func_overflow_isr+0x1>
 f22:	09 95       	icall
				g_u32_isr_ovf_counter = 0;
 f24:	10 92 36 01 	sts	0x0136, r1	; 0x800136 <g_u32_isr_ovf_counter>
 f28:	10 92 37 01 	sts	0x0137, r1	; 0x800137 <g_u32_isr_ovf_counter+0x1>
 f2c:	10 92 38 01 	sts	0x0138, r1	; 0x800138 <g_u32_isr_ovf_counter+0x2>
 f30:	10 92 39 01 	sts	0x0139, r1	; 0x800139 <g_u32_isr_ovf_counter+0x3>
				g_u64_polling_counter = 1;
 f34:	81 e0       	ldi	r24, 0x01	; 1
 f36:	90 e0       	ldi	r25, 0x00	; 0
 f38:	a0 e0       	ldi	r26, 0x00	; 0
 f3a:	b0 e0       	ldi	r27, 0x00	; 0
 f3c:	80 93 3a 01 	sts	0x013A, r24	; 0x80013a <g_u64_polling_counter>
 f40:	90 93 3b 01 	sts	0x013B, r25	; 0x80013b <g_u64_polling_counter+0x1>
 f44:	a0 93 3c 01 	sts	0x013C, r26	; 0x80013c <g_u64_polling_counter+0x2>
 f48:	b0 93 3d 01 	sts	0x013D, r27	; 0x80013d <g_u64_polling_counter+0x3>
				TIMER0_stop();
 f4c:	0e 94 f8 06 	call	0xdf0	; 0xdf0 <TIMER0_stop>
 f50:	0b c0       	rjmp	.+22     	; 0xf68 <__vector_11+0x9a>
			}
			else
			{
				g_u32_isr_ovf_counter++;
 f52:	01 96       	adiw	r24, 0x01	; 1
 f54:	a1 1d       	adc	r26, r1
 f56:	b1 1d       	adc	r27, r1
 f58:	80 93 36 01 	sts	0x0136, r24	; 0x800136 <g_u32_isr_ovf_counter>
 f5c:	90 93 37 01 	sts	0x0137, r25	; 0x800137 <g_u32_isr_ovf_counter+0x1>
 f60:	a0 93 38 01 	sts	0x0138, r26	; 0x800138 <g_u32_isr_ovf_counter+0x2>
 f64:	b0 93 39 01 	sts	0x0139, r27	; 0x800139 <g_u32_isr_ovf_counter+0x3>
	}
	else if (enable_delay_ms == TIMER0_DELAY_DISABLE)
	{
		ptr_func_overflow_isr();	
	}
}
 f68:	ff 91       	pop	r31
 f6a:	ef 91       	pop	r30
 f6c:	bf 91       	pop	r27
 f6e:	af 91       	pop	r26
 f70:	9f 91       	pop	r25
 f72:	8f 91       	pop	r24
 f74:	7f 91       	pop	r23
 f76:	6f 91       	pop	r22
 f78:	5f 91       	pop	r21
 f7a:	4f 91       	pop	r20
 f7c:	3f 91       	pop	r19
 f7e:	2f 91       	pop	r18
 f80:	0f 90       	pop	r0
 f82:	0f be       	out	0x3f, r0	; 63
 f84:	0f 90       	pop	r0
 f86:	1f 90       	pop	r1
 f88:	18 95       	reti

00000f8a <__vector_10>:

ISR(TIM0_COMP_INT)
{
 f8a:	1f 92       	push	r1
 f8c:	0f 92       	push	r0
 f8e:	0f b6       	in	r0, 0x3f	; 63
 f90:	0f 92       	push	r0
 f92:	11 24       	eor	r1, r1
 f94:	2f 93       	push	r18
 f96:	3f 93       	push	r19
 f98:	4f 93       	push	r20
 f9a:	5f 93       	push	r21
 f9c:	6f 93       	push	r22
 f9e:	7f 93       	push	r23
 fa0:	8f 93       	push	r24
 fa2:	9f 93       	push	r25
 fa4:	af 93       	push	r26
 fa6:	bf 93       	push	r27
 fa8:	ef 93       	push	r30
 faa:	ff 93       	push	r31
	ptr_func_ctc_isr();
 fac:	e0 91 3e 01 	lds	r30, 0x013E	; 0x80013e <ptr_func_ctc_isr>
 fb0:	f0 91 3f 01 	lds	r31, 0x013F	; 0x80013f <ptr_func_ctc_isr+0x1>
 fb4:	09 95       	icall
}
 fb6:	ff 91       	pop	r31
 fb8:	ef 91       	pop	r30
 fba:	bf 91       	pop	r27
 fbc:	af 91       	pop	r26
 fbe:	9f 91       	pop	r25
 fc0:	8f 91       	pop	r24
 fc2:	7f 91       	pop	r23
 fc4:	6f 91       	pop	r22
 fc6:	5f 91       	pop	r21
 fc8:	4f 91       	pop	r20
 fca:	3f 91       	pop	r19
 fcc:	2f 91       	pop	r18
 fce:	0f 90       	pop	r0
 fd0:	0f be       	out	0x3f, r0	; 63
 fd2:	0f 90       	pop	r0
 fd4:	1f 90       	pop	r1
 fd6:	18 95       	reti

00000fd8 <__tablejump2__>:
 fd8:	ee 0f       	add	r30, r30
 fda:	ff 1f       	adc	r31, r31
 fdc:	05 90       	lpm	r0, Z+
 fde:	f4 91       	lpm	r31, Z
 fe0:	e0 2d       	mov	r30, r0
 fe2:	09 94       	ijmp

00000fe4 <_exit>:
 fe4:	f8 94       	cli

00000fe6 <__stop_program>:
 fe6:	ff cf       	rjmp	.-2      	; 0xfe6 <__stop_program>
